CCS PCM C Compiler, Version 5.093, 4770               22-ago.-21 15:24

               Filename:   G:\OneDrive - Soluciones Marva\proyectos de pics\Canal\LCD_i2c_temp\main.lst

               ROM used:   1852 words (23%)
                           Largest free fragment is 2048
               RAM used:   17 (2%) at main() level
                           56 (5%) worst case
               Stack used: 6 locations
               Stack size: 16

0000:  MOVLP  00
0001:  GOTO   60D
0002:  NOP
.................... //#case
.................... #include <16f18855.h>
.................... //////////// Standard Header file for the PIC16F18855 device ////////////////
.................... ///////////////////////////////////////////////////////////////////////////
.................... ////        (C) Copyright 1996, 2014 Custom Computer Services          ////
.................... //// This source code may only be used by licensed users of the CCS C  ////
.................... //// compiler.  This source code may only be distributed to other      ////
.................... //// licensed users of the CCS C compiler.  No other use, reproduction ////
.................... //// or distribution is permitted without written permission.          ////
.................... //// Derivative programs created using this software in object code    ////
.................... //// form are not restricted in any way.                               ////
.................... ///////////////////////////////////////////////////////////////////////////
.................... #device PIC16F18855
0003:  BRW
0004:  RETLW  28
0005:  RETLW  0C
0006:  RETLW  01
0007:  RETLW  06
0008:  BRW
0009:  RETLW  00
000A:  RETLW  1B
000B:  RETLW  1B
000C:  RETLW  00
000D:  RETLW  1F
000E:  RETLW  1F
000F:  RETLW  0E
0010:  RETLW  00
0011:  DATA 0C,24
0012:  DATA 6F,36
0013:  DATA 61,10
0014:  DATA 33,05
0015:  DATA F3,30
0016:  DATA EC,3A
0017:  DATA E4,37
0018:  DATA 73,00
0019:  DATA 0C,2A
001A:  DATA C5,26
001B:  DATA 50,1D
001C:  DATA A0,12
001D:  DATA 33,17
001E:  DATA 32,33
001F:  DATA A0,12
0020:  DATA E3,21
0021:  DATA 0A,1D
0022:  DATA 76,10
0023:  DATA 25,32
0024:  DATA AE,12
0025:  DATA 64,00
*
0187:  MOVF   0B,W
0188:  BCF    0B.7
0189:  MOVLB  10
018A:  BCF    1E.6
018B:  BSF    1E.0
018C:  NOP
018D:  NOP
018E:  BTFSC  09.7
018F:  BSF    0B.7
0190:  MOVF   1C,W
0191:  ANDLW  7F
0192:  BTFSC  03.2
0193:  GOTO   1CF
0194:  MOVLB  00
0195:  MOVWF  2B
0196:  MOVLB  10
0197:  MOVF   1A,W
0198:  MOVLB  00
0199:  MOVWF  2C
019A:  MOVLB  10
019B:  MOVF   1B,W
019C:  MOVLB  00
019D:  MOVWF  2D
019E:  MOVF   2B,W
019F:  MOVWF  38
01A0:  CALL   13A
01A1:  MOVF   2C,W
01A2:  MOVLB  10
01A3:  MOVWF  1A
01A4:  MOVLB  00
01A5:  MOVF   2D,W
01A6:  MOVLB  10
01A7:  MOVWF  1B
01A8:  MOVF   0B,W
01A9:  BCF    0B.7
01AA:  BCF    1E.6
01AB:  BSF    1E.0
01AC:  NOP
01AD:  NOP
01AE:  BTFSC  09.7
01AF:  BSF    0B.7
01B0:  RLF    1C,W
01B1:  RLF    1D,W
01B2:  ANDLW  7F
01B3:  BTFSC  03.2
01B4:  GOTO   1CF
01B5:  MOVLB  00
01B6:  MOVWF  2B
01B7:  MOVLB  10
01B8:  MOVF   1A,W
01B9:  MOVLB  00
01BA:  MOVWF  2C
01BB:  MOVLB  10
01BC:  MOVF   1B,W
01BD:  MOVLB  00
01BE:  MOVWF  2D
01BF:  MOVF   2B,W
01C0:  MOVWF  38
01C1:  CALL   13A
01C2:  MOVF   2C,W
01C3:  MOVLB  10
01C4:  MOVWF  1A
01C5:  MOVLB  00
01C6:  MOVF   2D,W
01C7:  MOVLB  10
01C8:  MOVWF  1B
01C9:  INCF   1A,F
01CA:  BTFSC  03.2
01CB:  INCF   1B,F
01CC:  MOVLB  00
01CD:  GOTO   187
01CE:  MOVLB  10
01CF:  MOVLP  00
01D0:  MOVLB  00
01D1:  GOTO   64B (RETURN)
*
029B:  MOVLW  8E
029C:  MOVWF  77
029D:  MOVF   35,W
029E:  MOVWF  78
029F:  MOVF   34,W
02A0:  MOVWF  79
02A1:  CLRF   7A
02A2:  BTFSS  35.7
02A3:  GOTO   2A9
02A4:  COMF   78,F
02A5:  COMF   79,F
02A6:  INCF   79,F
02A7:  BTFSC  03.2
02A8:  INCF   78,F
02A9:  MOVF   78,F
02AA:  BTFSS  03.2
02AB:  GOTO   2B6
02AC:  MOVF   79,W
02AD:  MOVWF  78
02AE:  CLRF   79
02AF:  MOVLW  08
02B0:  SUBWF  77,F
02B1:  MOVF   78,F
02B2:  BTFSS  03.2
02B3:  GOTO   2B6
02B4:  CLRF   77
02B5:  GOTO   2BF
02B6:  BCF    03.0
02B7:  BTFSC  78.7
02B8:  GOTO   2BD
02B9:  RLF    79,F
02BA:  RLF    78,F
02BB:  DECF   77,F
02BC:  GOTO   2B6
02BD:  BTFSS  35.7
02BE:  BCF    78.7
*
02D4:  MOVF   38,W
02D5:  BTFSC  03.2
02D6:  GOTO   399
02D7:  MOVWF  44
02D8:  MOVF   3C,W
02D9:  BTFSC  03.2
02DA:  GOTO   399
02DB:  SUBWF  44,F
02DC:  BTFSS  03.0
02DD:  GOTO   2E3
02DE:  MOVLW  7F
02DF:  ADDWF  44,F
02E0:  BTFSC  03.0
02E1:  GOTO   399
02E2:  GOTO   2E9
02E3:  MOVLW  81
02E4:  SUBWF  44,F
02E5:  BTFSS  03.0
02E6:  GOTO   399
02E7:  BTFSC  03.2
02E8:  GOTO   399
02E9:  MOVF   44,W
02EA:  MOVWF  77
02EB:  CLRF   78
02EC:  CLRF   79
02ED:  CLRF   7A
02EE:  CLRF   43
02EF:  MOVF   39,W
02F0:  MOVWF  42
02F1:  BSF    42.7
02F2:  MOVF   3A,W
02F3:  MOVWF  41
02F4:  MOVF   3B,W
02F5:  MOVWF  40
02F6:  MOVLW  19
02F7:  MOVWF  44
02F8:  MOVF   3F,W
02F9:  SUBWF  40,F
02FA:  BTFSC  03.0
02FB:  GOTO   30C
02FC:  MOVLW  01
02FD:  SUBWF  41,F
02FE:  BTFSC  03.0
02FF:  GOTO   30C
0300:  SUBWF  42,F
0301:  BTFSC  03.0
0302:  GOTO   30C
0303:  SUBWF  43,F
0304:  BTFSC  03.0
0305:  GOTO   30C
0306:  INCF   43,F
0307:  INCF   42,F
0308:  INCF   41,F
0309:  MOVF   3F,W
030A:  ADDWF  40,F
030B:  GOTO   33E
030C:  MOVF   3E,W
030D:  SUBWF  41,F
030E:  BTFSC  03.0
030F:  GOTO   327
0310:  MOVLW  01
0311:  SUBWF  42,F
0312:  BTFSC  03.0
0313:  GOTO   327
0314:  SUBWF  43,F
0315:  BTFSC  03.0
0316:  GOTO   327
0317:  INCF   43,F
0318:  INCF   42,F
0319:  MOVF   3E,W
031A:  ADDWF  41,F
031B:  MOVF   3F,W
031C:  ADDWF  40,F
031D:  BTFSS  03.0
031E:  GOTO   33E
031F:  INCF   41,F
0320:  BTFSS  03.2
0321:  GOTO   33E
0322:  INCF   42,F
0323:  BTFSS  03.2
0324:  GOTO   33E
0325:  INCF   43,F
0326:  GOTO   33E
0327:  MOVF   3D,W
0328:  IORLW  80
0329:  SUBWF  42,F
032A:  BTFSC  03.0
032B:  GOTO   33D
032C:  MOVLW  01
032D:  SUBWF  43,F
032E:  BTFSC  03.0
032F:  GOTO   33D
0330:  INCF   43,F
0331:  MOVF   3D,W
0332:  IORLW  80
0333:  ADDWF  42,F
0334:  MOVF   3E,W
0335:  ADDWF  41,F
0336:  BTFSS  03.0
0337:  GOTO   31B
0338:  INCF   42,F
0339:  BTFSS  03.2
033A:  GOTO   31B
033B:  INCF   43,F
033C:  GOTO   31B
033D:  BSF    7A.0
033E:  DECFSZ 44,F
033F:  GOTO   341
0340:  GOTO   34C
0341:  BCF    03.0
0342:  RLF    40,F
0343:  RLF    41,F
0344:  RLF    42,F
0345:  RLF    43,F
0346:  BCF    03.0
0347:  RLF    7A,F
0348:  RLF    79,F
0349:  RLF    78,F
034A:  RLF    45,F
034B:  GOTO   2F8
034C:  BTFSS  45.0
034D:  GOTO   354
034E:  BCF    03.0
034F:  RRF    78,F
0350:  RRF    79,F
0351:  RRF    7A,F
0352:  RRF    45,F
0353:  GOTO   357
0354:  DECF   77,F
0355:  BTFSC  03.2
0356:  GOTO   399
0357:  BTFSC  45.7
0358:  GOTO   380
0359:  BCF    03.0
035A:  RLF    40,F
035B:  RLF    41,F
035C:  RLF    42,F
035D:  RLF    43,F
035E:  MOVF   3F,W
035F:  SUBWF  40,F
0360:  BTFSC  03.0
0361:  GOTO   36C
0362:  MOVLW  01
0363:  SUBWF  41,F
0364:  BTFSC  03.0
0365:  GOTO   36C
0366:  SUBWF  42,F
0367:  BTFSC  03.0
0368:  GOTO   36C
0369:  SUBWF  43,F
036A:  BTFSS  03.0
036B:  GOTO   38F
036C:  MOVF   3E,W
036D:  SUBWF  41,F
036E:  BTFSC  03.0
036F:  GOTO   377
0370:  MOVLW  01
0371:  SUBWF  42,F
0372:  BTFSC  03.0
0373:  GOTO   377
0374:  SUBWF  43,F
0375:  BTFSS  03.0
0376:  GOTO   38F
0377:  MOVF   3D,W
0378:  IORLW  80
0379:  SUBWF  42,F
037A:  BTFSC  03.0
037B:  GOTO   380
037C:  MOVLW  01
037D:  SUBWF  43,F
037E:  BTFSS  03.0
037F:  GOTO   38F
0380:  INCF   7A,F
0381:  BTFSS  03.2
0382:  GOTO   38F
0383:  INCF   79,F
0384:  BTFSS  03.2
0385:  GOTO   38F
0386:  INCF   78,F
0387:  BTFSS  03.2
0388:  GOTO   38F
0389:  INCF   77,F
038A:  BTFSC  03.2
038B:  GOTO   399
038C:  RRF    78,F
038D:  RRF    79,F
038E:  RRF    7A,F
038F:  MOVF   39,W
0390:  MOVWF  44
0391:  MOVF   3D,W
0392:  XORWF  44,F
0393:  BTFSS  44.7
0394:  GOTO   397
0395:  BSF    78.7
0396:  GOTO   39D
0397:  BCF    78.7
0398:  GOTO   39D
0399:  CLRF   77
039A:  CLRF   78
039B:  CLRF   79
039C:  CLRF   7A
*
03AF:  MOVF   0B,W
03B0:  BCF    0B.7
03B1:  MOVLB  10
03B2:  BCF    1E.6
03B3:  BSF    1E.0
03B4:  NOP
03B5:  NOP
03B6:  BTFSC  09.7
03B7:  BSF    0B.7
03B8:  BTFSC  03.0
03B9:  GOTO   3E0
03BA:  MOVF   1C,W
03BB:  ANDLW  7F
03BC:  MOVLB  00
03BD:  MOVWF  2E
03BE:  MOVLB  10
03BF:  MOVF   1A,W
03C0:  MOVLB  00
03C1:  MOVWF  2F
03C2:  MOVLB  10
03C3:  MOVF   1B,W
03C4:  MOVLB  00
03C5:  MOVWF  30
03C6:  MOVF   2E,W
03C7:  MOVWF  38
03C8:  CALL   13A
03C9:  MOVF   2F,W
03CA:  MOVLB  10
03CB:  MOVWF  1A
03CC:  MOVLB  00
03CD:  MOVF   30,W
03CE:  MOVLB  10
03CF:  MOVWF  1B
03D0:  MOVF   0B,W
03D1:  BCF    0B.7
03D2:  BCF    1E.6
03D3:  BSF    1E.0
03D4:  NOP
03D5:  NOP
03D6:  BTFSC  09.7
03D7:  BSF    0B.7
03D8:  MOVLB  00
03D9:  DECFSZ 2B,F
03DA:  GOTO   3DC
03DB:  GOTO   3DE
03DC:  MOVLB  10
03DD:  GOTO   3E0
03DE:  GOTO   3FE
03DF:  MOVLB  10
03E0:  RLF    1C,W
03E1:  RLF    1D,W
03E2:  ANDLW  7F
03E3:  MOVLB  00
03E4:  MOVWF  2E
03E5:  MOVLB  10
03E6:  MOVF   1A,W
03E7:  MOVLB  00
03E8:  MOVWF  2F
03E9:  MOVLB  10
03EA:  MOVF   1B,W
03EB:  MOVLB  00
03EC:  MOVWF  30
03ED:  MOVF   2E,W
03EE:  MOVWF  38
03EF:  CALL   13A
03F0:  MOVF   2F,W
03F1:  MOVLB  10
03F2:  MOVWF  1A
03F3:  MOVLB  00
03F4:  MOVF   30,W
03F5:  MOVLB  10
03F6:  MOVWF  1B
03F7:  INCF   1A,F
03F8:  BTFSC  03.2
03F9:  INCF   1B,F
03FA:  BCF    03.0
03FB:  MOVLB  00
03FC:  DECFSZ 2B,F
03FD:  GOTO   3AF
03FE:  RETURN
03FF:  BTFSC  03.1
0400:  GOTO   405
0401:  MOVLW  20
0402:  MOVWF  05
0403:  MOVLW  23
0404:  MOVWF  04
0405:  CLRF   77
0406:  CLRF   78
0407:  CLRF   79
0408:  CLRF   7A
0409:  CLRF   43
040A:  CLRF   44
040B:  CLRF   45
040C:  CLRF   46
040D:  MOVF   3F,W
040E:  IORWF  3E,W
040F:  IORWF  3D,W
0410:  IORWF  3C,W
0411:  BTFSC  03.2
0412:  GOTO   443
0413:  MOVLW  20
0414:  MOVWF  47
0415:  BCF    03.0
0416:  RLF    38,F
0417:  RLF    39,F
0418:  RLF    3A,F
0419:  RLF    3B,F
041A:  RLF    43,F
041B:  RLF    44,F
041C:  RLF    45,F
041D:  RLF    46,F
041E:  MOVF   3F,W
041F:  SUBWF  46,W
0420:  BTFSS  03.2
0421:  GOTO   42C
0422:  MOVF   3E,W
0423:  SUBWF  45,W
0424:  BTFSS  03.2
0425:  GOTO   42C
0426:  MOVF   3D,W
0427:  SUBWF  44,W
0428:  BTFSS  03.2
0429:  GOTO   42C
042A:  MOVF   3C,W
042B:  SUBWF  43,W
042C:  BTFSS  03.0
042D:  GOTO   43D
042E:  MOVF   3C,W
042F:  SUBWF  43,F
0430:  MOVF   3D,W
0431:  BTFSS  03.0
0432:  INCFSZ 3D,W
0433:  SUBWF  44,F
0434:  MOVF   3E,W
0435:  BTFSS  03.0
0436:  INCFSZ 3E,W
0437:  SUBWF  45,F
0438:  MOVF   3F,W
0439:  BTFSS  03.0
043A:  INCFSZ 3F,W
043B:  SUBWF  46,F
043C:  BSF    03.0
043D:  RLF    77,F
043E:  RLF    78,F
043F:  RLF    79,F
0440:  RLF    7A,F
0441:  DECFSZ 47,F
0442:  GOTO   415
0443:  MOVF   43,W
0444:  MOVWF  00
0445:  MOVF   44,W
0446:  MOVWI  W,[FSR0+01]
0447:  MOVF   45,W
0448:  MOVWI  W,[FSR0+02]
0449:  MOVF   46,W
044A:  MOVWI  W,[FSR0+03]
044B:  RETURN
044C:  MOVF   04,W
044D:  MOVWF  30
044E:  MOVF   2F,W
044F:  MOVWF  32
0450:  BTFSC  03.2
0451:  GOTO   4DE
0452:  MOVF   2E,W
0453:  MOVWF  3B
0454:  MOVF   2D,W
0455:  MOVWF  3A
0456:  MOVF   2C,W
0457:  MOVWF  39
0458:  MOVF   2B,W
0459:  MOVWF  38
045A:  CLRF   3F
045B:  CLRF   3E
045C:  MOVLW  20
045D:  MOVWF  3D
045E:  MOVLW  82
045F:  MOVWF  3C
0460:  MOVF   38,W
0461:  BTFSC  03.2
0462:  GOTO   4D0
0463:  MOVWF  43
0464:  MOVF   3C,W
0465:  BTFSC  03.2
0466:  GOTO   4D0
0467:  ADDWF  43,F
0468:  BTFSC  03.0
0469:  GOTO   471
046A:  MOVLW  7F
046B:  SUBWF  43,F
046C:  BTFSS  03.0
046D:  GOTO   4D0
046E:  BTFSC  03.2
046F:  GOTO   4D0
0470:  GOTO   475
0471:  MOVLW  81
0472:  ADDWF  43,F
0473:  BTFSC  03.0
0474:  GOTO   4D0
0475:  MOVF   43,W
0476:  MOVWF  77
0477:  CLRF   78
0478:  CLRF   79
0479:  CLRF   7A
047A:  MOVF   39,W
047B:  MOVWF  47
047C:  BSF    47.7
047D:  MOVF   3A,W
047E:  MOVWF  46
047F:  MOVF   3B,W
0480:  MOVWF  45
0481:  MOVLW  18
0482:  MOVWF  43
0483:  CLRF   44
0484:  BTFSS  45.0
0485:  GOTO   49E
0486:  MOVF   3F,W
0487:  ADDWF  7A,F
0488:  BTFSS  03.0
0489:  GOTO   490
048A:  INCF   79,F
048B:  BTFSS  03.2
048C:  GOTO   490
048D:  INCF   78,F
048E:  BTFSC  03.2
048F:  BSF    44.7
0490:  MOVF   3E,W
0491:  ADDWF  79,F
0492:  BTFSS  03.0
0493:  GOTO   497
0494:  INCF   78,F
0495:  BTFSC  03.2
0496:  BSF    44.7
0497:  MOVF   3D,W
0498:  MOVWF  3A
0499:  BSF    3A.7
049A:  MOVF   3A,W
049B:  ADDWF  78,F
049C:  BTFSC  03.0
049D:  BSF    44.7
049E:  RLF    44,F
049F:  RRF    78,F
04A0:  RRF    79,F
04A1:  RRF    7A,F
04A2:  RRF    47,F
04A3:  RRF    46,F
04A4:  RRF    45,F
04A5:  BCF    03.0
04A6:  DECFSZ 43,F
04A7:  GOTO   483
04A8:  MOVLW  01
04A9:  ADDWF  77,F
04AA:  BTFSC  03.0
04AB:  GOTO   4D0
04AC:  BTFSC  78.7
04AD:  GOTO   4B5
04AE:  RLF    47,F
04AF:  RLF    7A,F
04B0:  RLF    79,F
04B1:  RLF    78,F
04B2:  DECF   77,F
04B3:  BTFSC  03.2
04B4:  GOTO   4D0
04B5:  BTFSS  47.7
04B6:  GOTO   4C6
04B7:  INCF   7A,F
04B8:  BTFSS  03.2
04B9:  GOTO   4C6
04BA:  INCF   79,F
04BB:  BTFSS  03.2
04BC:  GOTO   4C6
04BD:  INCF   78,F
04BE:  BTFSS  03.2
04BF:  GOTO   4C6
04C0:  RRF    78,F
04C1:  RRF    79,F
04C2:  RRF    7A,F
04C3:  INCF   77,F
04C4:  BTFSC  03.2
04C5:  GOTO   4D0
04C6:  MOVF   39,W
04C7:  MOVWF  44
04C8:  MOVF   3D,W
04C9:  XORWF  44,F
04CA:  BTFSS  44.7
04CB:  GOTO   4CE
04CC:  BSF    78.7
04CD:  GOTO   4D4
04CE:  BCF    78.7
04CF:  GOTO   4D4
04D0:  CLRF   77
04D1:  CLRF   78
04D2:  CLRF   79
04D3:  CLRF   7A
04D4:  MOVF   7A,W
04D5:  MOVWF  2E
04D6:  MOVF   79,W
04D7:  MOVWF  2D
04D8:  MOVF   78,W
04D9:  MOVWF  2C
04DA:  MOVF   77,W
04DB:  MOVWF  2B
04DC:  DECFSZ 32,F
04DD:  GOTO   452
04DE:  MOVF   2E,W
04DF:  MOVWF  3B
04E0:  MOVF   2D,W
04E1:  MOVWF  3A
04E2:  MOVF   2C,W
04E3:  MOVWF  39
04E4:  MOVF   2B,W
04E5:  MOVWF  38
04E6:  MOVF   38,W
04E7:  SUBLW  B6
04E8:  MOVWF  38
04E9:  CLRF   7A
04EA:  MOVF   39,W
04EB:  MOVWF  3C
04EC:  BSF    39.7
04ED:  BCF    03.0
04EE:  RRF    39,F
04EF:  RRF    3A,F
04F0:  RRF    3B,F
04F1:  RRF    7A,F
04F2:  RRF    79,F
04F3:  RRF    78,F
04F4:  RRF    77,F
04F5:  DECFSZ 38,F
04F6:  GOTO   4ED
04F7:  BTFSS  3C.7
04F8:  GOTO   504
04F9:  COMF   77,F
04FA:  COMF   78,F
04FB:  COMF   79,F
04FC:  COMF   7A,F
04FD:  INCF   77,F
04FE:  BTFSC  03.2
04FF:  INCF   78,F
0500:  BTFSC  03.2
0501:  INCF   79,F
0502:  BTFSC  03.2
0503:  INCF   7A,F
0504:  MOVF   7A,W
0505:  MOVWF  2E
0506:  MOVF   79,W
0507:  MOVWF  2D
0508:  MOVF   78,W
0509:  MOVWF  2C
050A:  MOVF   77,W
050B:  MOVWF  2B
050C:  BTFSS  2E.7
050D:  GOTO   51B
050E:  DECF   30,F
050F:  BSF    30.5
0510:  COMF   2B,F
0511:  COMF   2C,F
0512:  COMF   2D,F
0513:  COMF   2E,F
0514:  INCF   2B,F
0515:  BTFSC  03.2
0516:  INCF   2C,F
0517:  BTFSC  03.2
0518:  INCF   2D,F
0519:  BTFSC  03.2
051A:  INCF   2E,F
051B:  MOVLW  3B
051C:  MOVWF  37
051D:  MOVLW  9A
051E:  MOVWF  36
051F:  MOVLW  CA
0520:  MOVWF  35
0521:  CLRF   34
0522:  MOVLW  0A
0523:  MOVWF  32
0524:  MOVF   2F,W
0525:  BTFSC  03.2
0526:  INCF   30,F
0527:  BSF    03.1
0528:  MOVLW  20
0529:  MOVWF  05
052A:  MOVLW  0B
052B:  MOVWF  04
052C:  MOVF   2E,W
052D:  MOVWF  3B
052E:  MOVF   2D,W
052F:  MOVWF  3A
0530:  MOVF   2C,W
0531:  MOVWF  39
0532:  MOVF   2B,W
0533:  MOVWF  38
0534:  MOVF   37,W
0535:  MOVWF  3F
0536:  MOVF   36,W
0537:  MOVWF  3E
0538:  MOVF   35,W
0539:  MOVWF  3D
053A:  MOVF   34,W
053B:  MOVWF  3C
053C:  CALL   3FF
053D:  MOVF   78,W
053E:  MOVF   77,F
053F:  BTFSS  03.2
0540:  GOTO   554
0541:  INCF   2F,W
0542:  SUBWF  32,W
0543:  BTFSC  03.2
0544:  GOTO   554
0545:  MOVF   30,W
0546:  BTFSC  03.2
0547:  GOTO   556
0548:  ANDLW  0F
0549:  SUBWF  32,W
054A:  BTFSC  03.2
054B:  GOTO   54E
054C:  BTFSC  03.0
054D:  GOTO   586
054E:  BTFSC  30.7
054F:  GOTO   586
0550:  BTFSC  30.6
0551:  GOTO   556
0552:  MOVLW  20
0553:  GOTO   582
0554:  MOVLW  20
0555:  ANDWF  30,F
0556:  BTFSS  30.5
0557:  GOTO   564
0558:  BCF    30.5
0559:  MOVF   2F,W
055A:  BTFSS  03.2
055B:  DECF   30,F
055C:  MOVF   77,W
055D:  MOVWF  30
055E:  MOVLW  2D
055F:  MOVWF  38
0560:  CALL   13A
0561:  MOVF   30,W
0562:  MOVWF  77
0563:  CLRF   30
0564:  MOVF   2F,W
0565:  SUBWF  32,W
0566:  BTFSS  03.2
0567:  GOTO   572
0568:  MOVF   77,W
0569:  MOVWF  30
056A:  MOVLW  2E
056B:  MOVWF  38
056C:  CALL   13A
056D:  MOVF   30,W
056E:  MOVWF  77
056F:  MOVLW  20
0570:  ANDWF  30,F
0571:  MOVLW  00
0572:  MOVLW  30
0573:  BTFSS  30.5
0574:  GOTO   582
0575:  BCF    30.5
0576:  MOVF   2F,W
0577:  BTFSS  03.2
0578:  DECF   30,F
0579:  MOVF   77,W
057A:  MOVWF  30
057B:  MOVLW  2D
057C:  MOVWF  38
057D:  CALL   13A
057E:  MOVF   30,W
057F:  MOVWF  77
0580:  CLRF   30
0581:  MOVLW  30
0582:  ADDWF  77,F
0583:  MOVF   77,W
0584:  MOVWF  38
0585:  CALL   13A
0586:  BCF    03.1
0587:  MOVF   37,W
0588:  MOVWF  3B
0589:  MOVF   36,W
058A:  MOVWF  3A
058B:  MOVF   35,W
058C:  MOVWF  39
058D:  MOVF   34,W
058E:  MOVWF  38
058F:  CLRF   3F
0590:  CLRF   3E
0591:  CLRF   3D
0592:  MOVLW  0A
0593:  MOVWF  3C
0594:  CALL   3FF
0595:  MOVF   7A,W
0596:  MOVWF  37
0597:  MOVF   79,W
0598:  MOVWF  36
0599:  MOVF   78,W
059A:  MOVWF  35
059B:  MOVF   77,W
059C:  MOVWF  34
059D:  DECFSZ 32,F
059E:  GOTO   527
059F:  MOVLP  00
05A0:  GOTO   713 (RETURN)
05A1:  MOVF   35,W
05A2:  CLRF   78
05A3:  SUBWF  34,W
05A4:  BTFSC  03.0
05A5:  GOTO   5A9
05A6:  MOVF   34,W
05A7:  MOVWF  77
05A8:  GOTO   5B5
05A9:  CLRF   77
05AA:  MOVLW  08
05AB:  MOVWF  36
05AC:  RLF    34,F
05AD:  RLF    77,F
05AE:  MOVF   35,W
05AF:  SUBWF  77,W
05B0:  BTFSC  03.0
05B1:  MOVWF  77
05B2:  RLF    78,F
05B3:  DECFSZ 36,F
05B4:  GOTO   5AC
05B5:  RETURN
05B6:  MOVLW  20
05B7:  BTFSS  2C.4
05B8:  MOVLW  30
05B9:  MOVWF  30
05BA:  MOVF   2B,W
05BB:  MOVWF  77
05BC:  BTFSS  2B.7
05BD:  GOTO   5C6
05BE:  COMF   77,F
05BF:  INCF   77,F
05C0:  MOVF   77,W
05C1:  MOVWF  2B
05C2:  MOVLW  2D
05C3:  MOVWF  30
05C4:  BSF    2C.7
05C5:  BSF    2C.0
05C6:  MOVF   2B,W
05C7:  MOVWF  34
05C8:  MOVLW  64
05C9:  MOVWF  35
05CA:  CALL   5A1
05CB:  MOVF   77,W
05CC:  MOVWF  2B
05CD:  MOVLW  30
05CE:  ADDWF  78,W
05CF:  MOVWF  31
05D0:  MOVF   2B,W
05D1:  MOVWF  34
05D2:  MOVLW  0A
05D3:  MOVWF  35
05D4:  CALL   5A1
05D5:  MOVLW  30
05D6:  ADDWF  77,W
05D7:  MOVWF  33
05D8:  MOVLW  30
05D9:  ADDWF  78,W
05DA:  MOVWF  32
05DB:  MOVF   30,W
05DC:  MOVWF  77
05DD:  MOVLW  30
05DE:  SUBWF  31,W
05DF:  BTFSC  03.2
05E0:  GOTO   5E5
05E1:  BSF    2C.1
05E2:  BTFSC  2C.7
05E3:  BSF    2C.2
05E4:  GOTO   5F9
05E5:  MOVF   30,W
05E6:  MOVWF  31
05E7:  MOVLW  20
05E8:  MOVWF  30
05E9:  MOVLW  30
05EA:  SUBWF  32,W
05EB:  BTFSC  03.2
05EC:  GOTO   5F1
05ED:  BSF    2C.0
05EE:  BTFSC  2C.7
05EF:  BSF    2C.1
05F0:  GOTO   5F9
05F1:  BTFSS  03.2
05F2:  BSF    2C.0
05F3:  BTFSS  03.2
05F4:  GOTO   5F9
05F5:  MOVF   31,W
05F6:  MOVWF  32
05F7:  MOVLW  20
05F8:  MOVWF  31
05F9:  BTFSC  2C.2
05FA:  GOTO   600
05FB:  BTFSC  2C.1
05FC:  GOTO   603
05FD:  BTFSC  2C.0
05FE:  GOTO   606
05FF:  GOTO   609
0600:  MOVF   30,W
0601:  MOVWF  38
0602:  CALL   13A
0603:  MOVF   31,W
0604:  MOVWF  38
0605:  CALL   13A
0606:  MOVF   32,W
0607:  MOVWF  38
0608:  CALL   13A
0609:  MOVF   33,W
060A:  MOVWF  38
060B:  CALL   13A
060C:  RETURN
.................... 
.................... #list
.................... 
.................... #include "PIC16F18855_registe.h"
.................... #byte INDF0 = 0x000
.................... 
.................... #byte INDF1 = 0x001
.................... 
.................... #byte PCL = 0x002
.................... 
.................... struct STATUS {
....................    unsigned int C:1;
....................    unsigned int DC:1;
....................    unsigned int Z:1;
....................    unsigned int PD:1;
....................    unsigned int TO:1;
.................... } STATUS;
.................... #byte STATUS = 0x003
.................... 
.................... #word FSR0 = 0x004
.................... 
.................... #word FSR1 = 0x006
.................... 
.................... #byte BSR = 0x008
.................... 
.................... #byte WREG = 0x009
.................... 
.................... #byte PCLATH = 0x00A
.................... 
.................... struct INTCON {
....................    unsigned int INTEDG:1;
....................    unsigned int :5;
....................    unsigned int PEIE:1;
....................    unsigned int GIE:1;
.................... } INTCON;
.................... #byte INTCON = 0x00B
.................... 
.................... struct PORTA {
....................    unsigned int RA0:1;
....................    unsigned int RA1:1;
....................    unsigned int RA2:1;
....................    unsigned int RA3:1;
....................    unsigned int RA4:1;
....................    unsigned int RA5:1;
....................    unsigned int RA6:1;
....................    unsigned int RA7:1;
.................... } PORTA;
.................... #byte PORTA = 0x00C
.................... 
.................... struct PORTB {
....................    unsigned int RB0:1;
....................    unsigned int RB1:1;
....................    unsigned int RB2:1;
....................    unsigned int RB3:1;
....................    unsigned int RB4:1;
....................    unsigned int RB5:1;
....................    unsigned int RB6:1;
....................    unsigned int RB7:1;
.................... } PORTB;
.................... #byte PORTB = 0x00D
.................... 
.................... struct PORTC {
....................    unsigned int RC0:1;
....................    unsigned int RC1:1;
....................    unsigned int RC2:1;
....................    unsigned int RC3:1;
....................    unsigned int RC4:1;
....................    unsigned int RC5:1;
....................    unsigned int RC6:1;
....................    unsigned int RC7:1;
.................... } PORTC;
.................... #byte PORTC = 0x00E
.................... 
.................... struct PORTE {
....................    unsigned int RE0:1;
....................    unsigned int RE1:1;
....................    unsigned int RE2:1;
....................    unsigned int RE3:1;
....................    unsigned int RE4:1;
....................    unsigned int RE5:1;
....................    unsigned int RE6:1;
....................    unsigned int RE7:1;
.................... } PORTE;
.................... #byte PORTE = 0x010
.................... 
.................... struct TRISA {
....................    unsigned int TRISA0:1;
....................    unsigned int TRISA1:1;
....................    unsigned int TRISA2:1;
....................    unsigned int TRISA3:1;
....................    unsigned int TRISA4:1;
....................    unsigned int TRISA5:1;
....................    unsigned int TRISA6:1;
....................    unsigned int TRISA7:1;
.................... } TRISA;
.................... #byte TRISA = 0x011
.................... 
.................... struct TRISB {
....................    unsigned int TRISB0:1;
....................    unsigned int TRISB1:1;
....................    unsigned int TRISB2:1;
....................    unsigned int TRISB3:1;
....................    unsigned int TRISB4:1;
....................    unsigned int TRISB5:1;
....................    unsigned int TRISB6:1;
....................    unsigned int TRISB7:1;
.................... } TRISB;
.................... #byte TRISB = 0x012
.................... 
.................... struct TRISC {
....................    unsigned int TRISC0:1;
....................    unsigned int TRISC1:1;
....................    unsigned int TRISC2:1;
....................    unsigned int TRISC3:1;
....................    unsigned int TRISC4:1;
....................    unsigned int TRISC5:1;
....................    unsigned int TRISC6:1;
....................    unsigned int TRISC7:1;
.................... } TRISC;
.................... #byte TRISC = 0x013
.................... 
.................... struct LATA {
....................    unsigned int LATA0:1;
....................    unsigned int LATA1:1;
....................    unsigned int LATA2:1;
....................    unsigned int LATA3:1;
....................    unsigned int LATA4:1;
....................    unsigned int LATA5:1;
....................    unsigned int LATA6:1;
....................    unsigned int LATA7:1;
.................... } LATA;
.................... #byte LATA = 0x016
.................... 
.................... struct LATB {
....................    unsigned int LATB0:1;
....................    unsigned int LATB1:1;
....................    unsigned int LATB2:1;
....................    unsigned int LATB3:1;
....................    unsigned int LATB4:1;
....................    unsigned int LATB5:1;
....................    unsigned int LATB6:1;
....................    unsigned int LATB7:1;
.................... } LATB;
.................... #byte LATB = 0x017
.................... 
.................... struct LATC {
....................    unsigned int LATC0:1;
....................    unsigned int LATC1:1;
....................    unsigned int LATC2:1;
....................    unsigned int LATC3:1;
....................    unsigned int LATC4:1;
....................    unsigned int LATC5:1;
....................    unsigned int LATC6:1;
....................    unsigned int LATC7:1;
.................... } LATC;
.................... #byte LATC = 0x018
.................... 
.................... struct TMR0 {
....................    unsigned int TMR0L:8;
.................... } TMR0;
.................... #byte TMR0 = 0x01C
.................... 
.................... struct TMR0H {
....................    union {
....................       struct {
....................          unsigned int TMR0H:8;
....................       };
.................... 
....................       struct {
....................          unsigned int T0PR:8;
....................       };
....................    };
.................... } TMR0H;
.................... #byte TMR0H = 0x01D
.................... 
.................... struct T0CON0 {
....................    unsigned int T0OUTPS:4;
....................    unsigned int T016BIT:1;
....................    unsigned int T0OUT:1;
....................    unsigned int T0OE:1;
....................    unsigned int T0EN:1;
.................... } T0CON0;
.................... #byte T0CON0 = 0x01E
.................... 
.................... struct T0CON1 {
....................    unsigned int T0CKPS:4;
....................    unsigned int T0ASYNC:1;
....................    unsigned int T0CS:3;
.................... } T0CON1;
.................... #byte T0CON1 = 0x01F
.................... 
.................... #word ADRES = 0x08C
.................... 
.................... struct ADCON0 {
....................    union {
....................       struct {
....................          unsigned int ADGO:1;
....................          unsigned int :1;
....................          unsigned int ADFM:2;
....................          unsigned int ADCS:1;
....................          unsigned int :1;
....................          unsigned int ADCONT:1;
....................          unsigned int ADON:1;
....................       };
.................... 
....................    union {
....................       struct {
....................          unsigned int DONE:1;
....................          unsigned int :1;
....................          unsigned int ADFRM:2;
....................       };
....................    };
.................... 
....................       struct {
....................          unsigned int GO:1;
....................       };
....................    };
.................... } ADCON0;
.................... #byte ADCON0 = 0x093
.................... 
.................... struct ADCON1 {
....................    unsigned int ADDSEN:1;
....................    unsigned int :4;
....................    unsigned int ADGPOL:1;
....................    unsigned int ADIPEN:1;
....................    unsigned int ADPPOL:1;
.................... } ADCON1;
.................... #byte ADCON1 = 0x094
.................... 
.................... struct ADCON2 {
....................    unsigned int ADMD:3;
....................    unsigned int ADACLR:1;
....................    unsigned int ADCRS:3;
....................    unsigned int ADPSIS:1;
.................... } ADCON2;
.................... #byte ADCON2 = 0x095
.................... 
.................... struct ADCON3 {
....................    unsigned int ADTMD:3;
....................    unsigned int ADSOI:1;
....................    unsigned int ADCALC:3;
.................... } ADCON3;
.................... #byte ADCON3 = 0x096
.................... 
.................... struct ADSTAT {
....................    unsigned int ADSTAT:3;
....................    unsigned int ADMACT:1;
....................    unsigned int ADMATH:1;
....................    unsigned int ADLTHR:1;
....................    unsigned int ADUTHR:1;
....................    unsigned int ADAOV:1;
.................... } ADSTAT;
.................... #byte ADSTAT = 0x097
.................... 
.................... #byte ADACT = 0x099
.................... 
.................... #byte RC1REG = 0x119
.................... 
.................... #byte TX1REG = 0x11A
.................... 
.................... #word SP1BRG = 0x11B
.................... 
.................... struct RC1STA {
....................    unsigned int RX9D:1;
....................    unsigned int OERR:1;
....................    unsigned int FERR:1;
....................    unsigned int ADDEN:1;
....................    unsigned int CREN:1;
....................    unsigned int SREN:1;
....................    unsigned int RX9:1;
....................    unsigned int SPEN:1;
.................... } RC1STA;
.................... #byte RC1STA = 0x11D
.................... 
.................... struct TX1STA {
....................    unsigned int TX9D:1;
....................    unsigned int TRMT:1;
....................    unsigned int BRGH:1;
....................    unsigned int SENDB:1;
....................    unsigned int SYNC:1;
....................    unsigned int TXEN:1;
....................    unsigned int TX9:1;
....................    unsigned int CSRC:1;
.................... } TX1STA;
.................... #byte TX1STA = 0x11E
.................... 
.................... struct BAUD1CON {
....................    unsigned int ABDEN:1;
....................    unsigned int WUE:1;
....................    unsigned int :1;
....................    unsigned int BRG16:1;
....................    unsigned int SCKP:1;
....................    unsigned int :1;
....................    unsigned int RCIDL:1;
....................    unsigned int ABDOVF:1;
.................... } BAUD1CON;
.................... #byte BAUD1CON = 0x11F
.................... 
.................... #byte SSP1BUF = 0x18C
.................... 
.................... 
.................... struct SSP1ADD {
....................    unsigned int MSK:8;
.................... } SSP1ADD;
.................... #byte SSP1ADD = 0x18D
.................... 
.................... 
.................... struct SSP1MSK {
....................    unsigned int MSK:8;
.................... } SSP1MSK;
.................... #byte SSP1MSK = 0x18E
.................... 
.................... struct SSP1STAT {
....................    union {
....................       struct {
....................          unsigned int BF:1;
....................          unsigned int UA:1;
....................          unsigned int R:1;
....................          unsigned int S:1;
....................          unsigned int P:1;
....................          unsigned int D:1;
....................          unsigned int CKE:1;
....................          unsigned int SMP:1;
....................       };
.................... 
....................    union {
....................       struct {
....................          unsigned int :2;
....................          unsigned int R_W:1;
....................          unsigned int :2;
....................          unsigned int D_A:1;
....................       };
....................    };
.................... 
....................    union {
....................       struct {
....................          unsigned int :2;
....................          unsigned int W:1;
....................          unsigned int :2;
....................          unsigned int A:1;
....................       };
....................    };
.................... 
....................    union {
....................       struct {
....................          unsigned int :2;
....................          unsigned int WRITE:1;
....................          unsigned int S2:1;
....................          unsigned int P2:1;
....................          unsigned int ADDRESS:1;
....................       };
....................    };
.................... 
....................    union {
....................       struct {
....................          unsigned int :2;
....................          unsigned int READ_WRITE:1;
....................          unsigned int I2C_START:1;
....................          unsigned int I2C_STOP:1;
....................          unsigned int DATA_ADDRESS:1;
....................       };
....................    };
.................... 
....................    union {
....................       struct {
....................          unsigned int BF1:1;
....................          unsigned int UA1:1;
....................          unsigned int I2C_READ:1;
....................          unsigned int START:1;
....................          unsigned int STOP:1;
....................          unsigned int I2C_DAT:1;
....................          unsigned int CKE1:1;
....................          unsigned int SMP1:1;
....................       };
....................    };
.................... 
....................    union {
....................       struct {
....................          unsigned int :2;
....................          unsigned int RW:1;
....................          unsigned int I2C_START1:1;
....................          unsigned int I2C_STOP2:1;
....................          unsigned int DA:1;
....................       };
....................    };
.................... 
....................       struct {
....................          unsigned int :2;
....................          unsigned int W2:1;
....................          unsigned int :2;
....................          unsigned int A2:1;
....................       };
....................    };
.................... } SSP1STAT;
.................... #byte SSP1STAT = 0x18F
.................... 
.................... struct SSP1CON1 {
....................    unsigned int SSPM:4;
....................    unsigned int CKP:1;
....................    unsigned int SSPEN:1;
....................    unsigned int SSPOV:1;
....................    unsigned int WCOL:1;
.................... } SSP1CON1;
.................... #byte SSP1CON1 = 0x190
.................... 
.................... struct SSP1CON2 {
....................    union {
....................       struct {
....................          unsigned int SEN:1;
....................          unsigned int RSEN:1;
....................          unsigned int PEN:1;
....................          unsigned int RCEN:1;
....................          unsigned int ACKEN:1;
....................          unsigned int ACKDT:1;
....................          unsigned int ACKSTAT:1;
....................          unsigned int GCEN:1;
....................       };
.................... 
....................    union {
....................       struct {
....................          unsigned int :1;
....................          unsigned int ADMSK:5;
....................       };
....................    };
.................... 
....................       struct {
....................          unsigned int SEN1:1;
....................          unsigned int ADMSK1:5;
....................          unsigned int ACKSTAT1:1;
....................          unsigned int GCEN1:1;
....................       };
....................    };
.................... } SSP1CON2;
.................... #byte SSP1CON2 = 0x191
.................... 
.................... struct SSP1CON3 {
....................    unsigned int DHEN:1;
....................    unsigned int AHEN:1;
....................    unsigned int SBCDE:1;
....................    unsigned int SDAHT:1;
....................    unsigned int BOEN:1;
....................    unsigned int SCIE:1;
....................    unsigned int PCIE:1;
....................    unsigned int ACKTIM:1;
.................... } SSP1CON3;
.................... #byte SSP1CON3 = 0x192
.................... 
.................... #byte SSP2BUF = 0x196
.................... 
.................... 
.................... struct SSP2ADD {
....................    union {
....................       struct {
....................          unsigned int MSK:8;
....................       };
.................... 
....................       struct {
....................          unsigned int MSK02:1;
....................          unsigned int MSK12:1;
....................          unsigned int MSK22:1;
....................          unsigned int MSK32:1;
....................          unsigned int MSK42:1;
....................          unsigned int MSK52:1;
....................          unsigned int :1;
....................          unsigned int MSK72:1;
....................       };
....................    };
.................... } SSP2ADD;
.................... #byte SSP2ADD = 0x197
.................... 
.................... 
.................... struct SSP2MSK {
....................    unsigned int MSK:8;
.................... } SSP2MSK;
.................... #byte SSP2MSK = 0x198
.................... 
.................... struct SSP2STAT {
....................    union {
....................       struct {
....................          unsigned int BF:1;
....................          unsigned int UA:1;
....................          unsigned int R:1;
....................          unsigned int S:1;
....................          unsigned int P:1;
....................          unsigned int D:1;
....................          unsigned int CKE:1;
....................          unsigned int SMP:1;
....................       };
.................... 
....................    union {
....................       struct {
....................          unsigned int :2;
....................          unsigned int R_W:1;
....................          unsigned int :2;
....................          unsigned int D_A:1;
....................       };
....................    };
.................... 
....................    union {
....................       struct {
....................          unsigned int :2;
....................          unsigned int W:1;
....................          unsigned int :2;
....................          unsigned int A:1;
....................       };
....................    };
.................... 
....................    union {
....................       struct {
....................          unsigned int :2;
....................          unsigned int WRITE:1;
....................          unsigned int START2:1;
....................          unsigned int STOP2:1;
....................          unsigned int ADDRESS:1;
....................       };
....................    };
.................... 
....................    union {
....................       struct {
....................          unsigned int :2;
....................          unsigned int READ_WRITE:1;
....................          unsigned int I2C_START:1;
....................          unsigned int I2C_STOP:1;
....................          unsigned int DATA_ADDRESS:1;
....................       };
....................    };
.................... 
....................    union {
....................       struct {
....................          unsigned int BF2:1;
....................          unsigned int UA2:1;
....................          unsigned int I2C_READ:1;
....................          unsigned int START:1;
....................          unsigned int STOP:1;
....................          unsigned int I2C_DAT:1;
....................          unsigned int CKE2:1;
....................          unsigned int SMP2:1;
....................       };
....................    };
.................... 
....................    union {
....................       struct {
....................          unsigned int :2;
....................          unsigned int RW:1;
....................          unsigned int I2C_START2:1;
....................          unsigned int I2C_STOP2:1;
....................          unsigned int DA:1;
....................       };
....................    };
.................... 
....................    union {
....................       struct {
....................          unsigned int :2;
....................          unsigned int RW2:1;
....................          unsigned int S2:1;
....................          unsigned int P2:1;
....................          unsigned int DA2:1;
....................       };
....................    };
.................... 
....................    union {
....................       struct {
....................          unsigned int :2;
....................          unsigned int I2C_READ2:1;
....................          unsigned int :2;
....................          unsigned int DATA_ADDRESS2:1;
....................       };
....................    };
.................... 
....................    union {
....................       struct {
....................          unsigned int :2;
....................          unsigned int READ_WRITE2:1;
....................          unsigned int :2;
....................          unsigned int D_A2:1;
....................       };
....................    };
.................... 
....................    union {
....................       struct {
....................          unsigned int :2;
....................          unsigned int R_W2:1;
....................          unsigned int :2;
....................          unsigned int I2C_DAT2:1;
....................       };
....................    };
.................... 
....................    union {
....................       struct {
....................          unsigned int :2;
....................          unsigned int W2:1;
....................          unsigned int :2;
....................          unsigned int A2:1;
....................       };
....................    };
.................... 
....................       struct {
....................          unsigned int :2;
....................          unsigned int WRITE2:1;
....................          unsigned int :2;
....................          unsigned int ADDRESS2:1;
....................       };
....................    };
.................... } SSP2STAT;
.................... #byte SSP2STAT = 0x199
.................... 
.................... struct SSP2CON1 {
....................    union {
....................       struct {
....................          unsigned int SSPM:4;
....................          unsigned int CKP:1;
....................          unsigned int SSPEN:1;
....................          unsigned int SSPOV:1;
....................          unsigned int WCOL:1;
....................       };
.................... 
....................       struct {
....................          unsigned int SSPM02:1;
....................          unsigned int SSPM12:1;
....................          unsigned int SSPM22:1;
....................          unsigned int SSPM32:1;
....................          unsigned int CKP2:1;
....................          unsigned int SSPEN2:1;
....................          unsigned int SSPOV2:1;
....................          unsigned int WCOL2:1;
....................       };
....................    };
.................... } SSP2CON1;
.................... #byte SSP2CON1 = 0x19A
.................... 
.................... struct SSP2CON2 {
....................    union {
....................       struct {
....................          unsigned int SEN:1;
....................          unsigned int RSEN:1;
....................          unsigned int PEN:1;
....................          unsigned int RCEN:1;
....................          unsigned int ACKEN:1;
....................          unsigned int ACKDT:1;
....................          unsigned int ACKSTAT:1;
....................          unsigned int GCEN:1;
....................       };
.................... 
....................    union {
....................       struct {
....................          unsigned int :1;
....................          unsigned int ADMSK:5;
....................       };
....................    };
.................... 
....................    union {
....................       struct {
....................          unsigned int SEN2:1;
....................          unsigned int ADMSK1:5;
....................          unsigned int ACKSTAT2:1;
....................          unsigned int GCEN2:1;
....................       };
....................    };
.................... 
....................    union {
....................       struct {
....................          unsigned int :1;
....................          unsigned int ADMSK12:1;
....................          unsigned int ADMSK22:1;
....................          unsigned int ADMSK32:1;
....................          unsigned int ACKEN2:1;
....................          unsigned int ACKDT2:1;
....................       };
....................    };
.................... 
....................       struct {
....................          unsigned int :1;
....................          unsigned int RSEN2:1;
....................          unsigned int PEN2:1;
....................          unsigned int RCEN2:1;
....................          unsigned int ADMSK42:1;
....................          unsigned int ADMSK52:1;
....................       };
....................    };
.................... } SSP2CON2;
.................... #byte SSP2CON2 = 0x19B
.................... 
.................... struct SSP2CON3 {
....................    unsigned int DHEN:1;
....................    unsigned int AHEN:1;
....................    unsigned int SBCDE:1;
....................    unsigned int SDAHT:1;
....................    unsigned int BOEN:1;
....................    unsigned int SCIE:1;
....................    unsigned int PCIE:1;
....................    unsigned int ACKTIM:1;
.................... } SSP2CON3;
.................... #byte SSP2CON3 = 0x19C
.................... 
.................... struct TMR1L {
....................    union {
....................       struct {
....................          unsigned int TMR1L:8;
....................       };
.................... 
....................    union {
....................       struct {
....................          unsigned int :8;
....................       };
....................    };
.................... 
....................    union {
....................       struct {
....................          unsigned int TMR1:8;
....................       };
....................    };
.................... 
....................       struct {
....................          unsigned int CAL01:1;
....................          unsigned int CAL11:1;
....................          unsigned int CAL21:1;
....................          unsigned int CAL31:1;
....................          unsigned int CAL41:1;
....................          unsigned int :1;
....................          unsigned int CAL61:1;
....................          unsigned int CAL71:1;
....................       };
....................    };
.................... } TMR1;
.................... #byte TMR1 = 0x20C
.................... 
.................... struct TMR1H {
....................    union {
....................       struct {
....................          unsigned int TMR1H:8;
....................       };
.................... 
....................    union {
....................       struct {
....................          unsigned int :8;
....................       };
....................    };
.................... 
....................       struct {
....................          unsigned int TMR18:2;
....................          unsigned int TMR11:6;
....................       };
....................    };
.................... } TMR1H;
.................... #byte TMR1H = 0x20D
.................... 
.................... struct T1CON {
....................    union {
....................       struct {
....................          unsigned int ON:1;
....................          unsigned int RD16:1;
....................          unsigned int SYNC:1;
....................          unsigned int :1;
....................          unsigned int CKPS:2;
....................       };
.................... 
....................       struct {
....................          unsigned int TMR1ON:1;
....................          unsigned int T1RD16:1;
....................          unsigned int T1SYNC:1;
....................          unsigned int :1;
....................          unsigned int T1CKPS:2;
....................       };
....................    };
.................... } T1CON;
.................... #byte T1CON = 0x20E
.................... 
.................... struct T1GCON {
....................    union {
....................       struct {
....................          unsigned int :2;
....................          unsigned int GVAL:1;
....................          unsigned int GGO:1;
....................          unsigned int GSPM:1;
....................          unsigned int GTM:1;
....................          unsigned int GPOL:1;
....................          unsigned int GE:1;
....................       };
.................... 
....................       struct {
....................          unsigned int :2;
....................          unsigned int T1GVAL:1;
....................          unsigned int T1GGO:1;
....................          unsigned int T1GSPM:1;
....................          unsigned int T1GTM:1;
....................          unsigned int T1GPOL:1;
....................          unsigned int T1GE:1;
....................       };
....................    };
.................... } T1GCON;
.................... #byte T1GCON = 0x20F
.................... 
.................... struct TMR3L {
....................    union {
....................       struct {
....................          unsigned int TMR3L:8;
....................       };
.................... 
....................    union {
....................       struct {
....................          unsigned int TMR3:8;
....................       };
....................    };
.................... 
....................       struct {
....................          unsigned int CAL03:1;
....................          unsigned int CAL13:1;
....................          unsigned int CAL23:1;
....................          unsigned int CAL33:1;
....................          unsigned int CAL43:1;
....................          unsigned int CAL53:1;
....................          unsigned int CAL63:1;
....................       };
....................    };
.................... } TMR3;
.................... #byte TMR3 = 0x212
.................... 
.................... struct TMR3H {
....................    union {
....................       struct {
....................          unsigned int TMR3H:8;
....................       };
.................... 
....................       struct {
....................          unsigned int TMR38:2;
....................          unsigned int TMR31:6;
....................       };
....................    };
.................... } TMR3H;
.................... #byte TMR3H = 0x213
.................... 
.................... struct T3CON {
....................    union {
....................       struct {
....................          unsigned int ON:1;
....................          unsigned int RD16:1;
....................          unsigned int SYNC:1;
....................          unsigned int :1;
....................          unsigned int CKPS:2;
....................       };
.................... 
....................    union {
....................       struct {
....................          unsigned int TMR3ON:1;
....................          unsigned int T3RD16:1;
....................          unsigned int T3SYNC:1;
....................          unsigned int :1;
....................          unsigned int T3CKPS:2;
....................       };
....................    };
.................... 
....................       struct {
....................          unsigned int :1;
....................          unsigned int RD163:1;
....................       };
....................    };
.................... } T3CON;
.................... #byte T3CON = 0x214
.................... 
.................... struct T3GCON {
....................    union {
....................       struct {
....................          unsigned int :2;
....................          unsigned int GVAL:1;
....................          unsigned int GGO:1;
....................          unsigned int GSPM:1;
....................          unsigned int GTM:1;
....................          unsigned int GPOL:1;
....................          unsigned int GE:1;
....................       };
.................... 
....................       struct {
....................          unsigned int :2;
....................          unsigned int T3GVAL:1;
....................          unsigned int T3GGO:1;
....................          unsigned int T3GSPM:1;
....................          unsigned int T3GTM:1;
....................          unsigned int T3GPOL:1;
....................          unsigned int T3GE:1;
....................       };
....................    };
.................... } T3GCON;
.................... #byte T3GCON = 0x215
.................... 
.................... struct TMR5L {
....................    union {
....................       struct {
....................          unsigned int TMR5L:8;
....................       };
.................... 
....................    union {
....................       struct {
....................          unsigned int TMR5:8;
....................       };
....................    };
.................... 
....................       struct {
....................          unsigned int CAL05:1;
....................          unsigned int CAL15:1;
....................          unsigned int CAL25:1;
....................          unsigned int CAL35:1;
....................          unsigned int CAL45:1;
....................          unsigned int CAL55:1;
....................          unsigned int CAL65:1;
....................          unsigned int CAL75:1;
....................       };
....................    };
.................... } TMR5;
.................... #byte TMR5 = 0x218
.................... 
.................... struct TMR5H {
....................    union {
....................       struct {
....................          unsigned int TMR5H:8;
....................       };
.................... 
....................       struct {
....................          unsigned int TMR58:2;
....................          unsigned int TMR51:6;
....................       };
....................    };
.................... } TMR5H;
.................... #byte TMR5H = 0x219
.................... 
.................... struct T5CON {
....................    union {
....................       struct {
....................          unsigned int ON:1;
....................          unsigned int RD16:1;
....................          unsigned int SYNC:1;
....................          unsigned int :1;
....................          unsigned int CKPS:2;
....................       };
.................... 
....................    union {
....................       struct {
....................          unsigned int TMR5ON:1;
....................          unsigned int T5RD16:1;
....................          unsigned int T5SYNC:1;
....................          unsigned int :1;
....................          unsigned int T5CKPS:2;
....................       };
....................    };
.................... 
....................       struct {
....................          unsigned int :1;
....................          unsigned int RD165:1;
....................       };
....................    };
.................... } T5CON;
.................... #byte T5CON = 0x21A
.................... 
.................... struct T5GCON {
....................    union {
....................       struct {
....................          unsigned int :2;
....................          unsigned int GVAL:1;
....................          unsigned int GGO:1;
....................          unsigned int GSPM:1;
....................          unsigned int GTM:1;
....................          unsigned int GPOL:1;
....................          unsigned int GE:1;
....................       };
.................... 
....................       struct {
....................          unsigned int :2;
....................          unsigned int T5GVAL:1;
....................          unsigned int T5GGO:1;
....................          unsigned int T5GSPM:1;
....................          unsigned int T5GTM:1;
....................          unsigned int T5GPOL:1;
....................          unsigned int T5GE:1;
....................       };
....................    };
.................... } T5GCON;
.................... #byte T5GCON = 0x21B
.................... 
.................... struct CCPTMRS0 {
....................    unsigned int C1TSEL:2;
....................    unsigned int C2TSEL:2;
....................    unsigned int C3TSEL:2;
....................    unsigned int C4TSEL:2;
.................... } CCPTMRS0;
.................... #byte CCPTMRS0 = 0x21E
.................... 
.................... struct CCPTMRS1 {
....................    unsigned int C5TSEL:2;
....................    unsigned int P6TSEL:2;
....................    unsigned int P7TSEL:2;
.................... } CCPTMRS1;
.................... #byte CCPTMRS1 = 0x21F
.................... 
.................... #byte T2TMR = 0x28C
.................... 
.................... #byte T2PR = 0x28D
.................... 
.................... struct T2CON {
....................    union {
....................       struct {
....................          unsigned int OUTPS:4;
....................          unsigned int CKPS:3;
....................          unsigned int ON:1;
....................       };
.................... 
....................    union {
....................       struct {
....................          unsigned int T2OUTPS:4;
....................          unsigned int T2CKPS:3;
....................          unsigned int T2ON:1;
....................       };
....................    };
.................... 
....................       struct {
....................          unsigned int :7;
....................          unsigned int TMR2ON:1;
....................       };
....................    };
.................... } T2CON;
.................... #byte T2CON = 0x28E
.................... 
.................... struct T2HLT {
....................    union {
....................       struct {
....................          unsigned int MODE:5;
....................          unsigned int CKSYNC:1;
....................          unsigned int CKPOL:1;
....................          unsigned int PSYNC:1;
....................       };
.................... 
....................       struct {
....................          unsigned int T2MODE:5;
....................          unsigned int T2CKSYNC:1;
....................          unsigned int T2CKPOL:1;
....................          unsigned int T2PSYNC:1;
....................       };
....................    };
.................... } T2HLT;
.................... #byte T2HLT = 0x28F
.................... 
.................... #byte T2RST = 0x291
.................... 
.................... #byte T4TMR = 0x292
.................... 
.................... #byte T4PR = 0x293
.................... 
.................... struct T4CON {
....................    union {
....................       struct {
....................          unsigned int OUTPS:4;
....................          unsigned int CKPS:3;
....................          unsigned int ON:1;
....................       };
.................... 
....................    union {
....................       struct {
....................          unsigned int T4OUTPS:4;
....................          unsigned int T4CKPS:3;
....................          unsigned int T4ON:1;
....................       };
....................    };
.................... 
....................       struct {
....................          unsigned int :7;
....................          unsigned int TMR4ON:1;
....................       };
....................    };
.................... } T4CON;
.................... #byte T4CON = 0x294
.................... 
.................... struct T4HLT {
....................    union {
....................       struct {
....................          unsigned int MODE:5;
....................          unsigned int CKSYNC:1;
....................          unsigned int CKPOL:1;
....................          unsigned int PSYNC:1;
....................       };
.................... 
....................       struct {
....................          unsigned int T4MODE:5;
....................          unsigned int T4CKSYNC:1;
....................          unsigned int T4CKPOL:1;
....................          unsigned int T4PSYNC:1;
....................       };
....................    };
.................... } T4HLT;
.................... #byte T4HLT = 0x295
.................... 
.................... #byte T4RST = 0x297
.................... 
.................... #byte T6TMR = 0x298
.................... 
.................... #byte T6PR = 0x299
.................... 
.................... struct T6CON {
....................    union {
....................       struct {
....................          unsigned int OUTPS:4;
....................          unsigned int CKPS:3;
....................          unsigned int ON:1;
....................       };
.................... 
....................    union {
....................       struct {
....................          unsigned int T6OUTPS:4;
....................          unsigned int T6CKPS:3;
....................          unsigned int T6ON:1;
....................       };
....................    };
.................... 
....................       struct {
....................          unsigned int :7;
....................          unsigned int TMR6ON:1;
....................       };
....................    };
.................... } T6CON;
.................... #byte T6CON = 0x29A
.................... 
.................... struct T6HLT {
....................    union {
....................       struct {
....................          unsigned int MODE:5;
....................          unsigned int CKSYNC:1;
....................          unsigned int CKPOL:1;
....................          unsigned int PSYNC:1;
....................       };
.................... 
....................       struct {
....................          unsigned int T6MODE:5;
....................          unsigned int T6CKSYNC:1;
....................          unsigned int T6CKPOL:1;
....................          unsigned int T6PSYNC:1;
....................       };
....................    };
.................... } T6HLT;
.................... #byte T6HLT = 0x29B
.................... 
.................... #byte T6RST = 0x29D
.................... 
.................... #word CCPR1 = 0x30C
.................... 
.................... struct CCP1CON {
....................    union {
....................       struct {
....................          unsigned int MODE:4;
....................          unsigned int FMT:1;
....................          unsigned int OUT:1;
....................          unsigned int OE:1;
....................          unsigned int EN:1;
....................       };
.................... 
....................    union {
....................       struct {
....................          unsigned int CCP1MODE:4;
....................          unsigned int CCP1FMT:1;
....................          unsigned int CCP1OUT:1;
....................          unsigned int CCP1OE:1;
....................          unsigned int CCP1EN:1;
....................       };
....................    };
.................... 
....................       struct {
....................          unsigned int :6;
....................          unsigned int P1M:2;
....................       };
....................    };
.................... } CCP1CON;
.................... #byte CCP1CON = 0x30E
.................... 
.................... 
.................... struct CCP1CAP {
....................    union {
....................       struct {
....................          unsigned int CTS:8;
....................       };
.................... 
....................       struct {
....................          unsigned int CCP1CTS:8;
....................       };
....................    };
.................... } CCP1CAP;
.................... #byte CCP1CAP = 0x30F
.................... 
.................... #word CCPR2 = 0x310
.................... 
.................... struct CCP2CON {
....................    union {
....................       struct {
....................          unsigned int MODE:4;
....................          unsigned int FMT:1;
....................          unsigned int OUT:1;
....................          unsigned int OE:1;
....................          unsigned int EN:1;
....................       };
.................... 
....................    union {
....................       struct {
....................          unsigned int CCP2MODE:4;
....................          unsigned int CCP2FMT:1;
....................          unsigned int CCP2OUT:1;
....................          unsigned int CCP2OE:1;
....................          unsigned int CCP2EN:1;
....................       };
....................    };
.................... 
....................       struct {
....................          unsigned int :6;
....................          unsigned int P2M:2;
....................       };
....................    };
.................... } CCP2CON;
.................... #byte CCP2CON = 0x312
.................... 
.................... 
.................... struct CCP2CAP {
....................    union {
....................       struct {
....................          unsigned int CTS:8;
....................       };
.................... 
....................       struct {
....................          unsigned int CCP2CTS:8;
....................       };
....................    };
.................... } CCP2CAP;
.................... #byte CCP2CAP = 0x313
.................... 
.................... #word CCPR3 = 0x314
.................... 
.................... struct CCP3CON {
....................    union {
....................       struct {
....................          unsigned int MODE:4;
....................          unsigned int FMT:1;
....................          unsigned int OUT:1;
....................          unsigned int OE:1;
....................          unsigned int EN:1;
....................       };
.................... 
....................    union {
....................       struct {
....................          unsigned int CCP3MODE:4;
....................          unsigned int CCP3FMT:1;
....................          unsigned int CCP3OUT:1;
....................          unsigned int CCP3OE:1;
....................          unsigned int CCP3EN:1;
....................       };
....................    };
.................... 
....................       struct {
....................          unsigned int :6;
....................          unsigned int P3M:2;
....................       };
....................    };
.................... } CCP3CON;
.................... #byte CCP3CON = 0x316
.................... 
.................... 
.................... struct CCP3CAP {
....................    union {
....................       struct {
....................          unsigned int CTS:8;
....................       };
.................... 
....................       struct {
....................          unsigned int CCP3CTS:8;
....................       };
....................    };
.................... } CCP3CAP;
.................... #byte CCP3CAP = 0x317
.................... 
.................... #word CCPR4 = 0x318
.................... 
.................... struct CCP4CON {
....................    union {
....................       struct {
....................          unsigned int MODE:4;
....................          unsigned int FMT:1;
....................          unsigned int OUT:1;
....................          unsigned int OE:1;
....................          unsigned int EN:1;
....................       };
.................... 
....................    union {
....................       struct {
....................          unsigned int CCP4MODE:4;
....................          unsigned int CCP4FMT:1;
....................          unsigned int CCP4OUT:1;
....................          unsigned int CCP4OE:1;
....................          unsigned int CCP4EN:1;
....................       };
....................    };
.................... 
....................       struct {
....................          unsigned int :6;
....................          unsigned int P4M:2;
....................       };
....................    };
.................... } CCP4CON;
.................... #byte CCP4CON = 0x31A
.................... 
.................... 
.................... struct CCP4CAP {
....................    union {
....................       struct {
....................          unsigned int CTS:8;
....................       };
.................... 
....................       struct {
....................          unsigned int CCP4CTS:8;
....................       };
....................    };
.................... } CCP4CAP;
.................... #byte CCP4CAP = 0x31B
.................... 
.................... #word CCPR5 = 0x31C
.................... 
.................... struct CCP5CON {
....................    union {
....................       struct {
....................          unsigned int MODE:4;
....................          unsigned int FMT:1;
....................          unsigned int OUT:1;
....................          unsigned int OE:1;
....................          unsigned int EN:1;
....................       };
.................... 
....................    union {
....................       struct {
....................          unsigned int CCP5MODE:4;
....................          unsigned int CCP5FMT:1;
....................          unsigned int CCP5OUT:1;
....................          unsigned int CCP5OE:1;
....................          unsigned int CCP5EN:1;
....................       };
....................    };
.................... 
....................       struct {
....................          unsigned int :6;
....................          unsigned int P5M:2;
....................       };
....................    };
.................... } CCP5CON;
.................... #byte CCP5CON = 0x31E
.................... 
.................... struct PWM6DCL {
....................    union {
....................       struct {
....................          unsigned int :6;
....................          unsigned int DC:2;
....................       };
.................... 
....................    union {
....................       struct {
....................          unsigned int :6;
....................          unsigned int PWM6DC:2;
....................       };
....................    };
.................... 
....................       struct {
....................          unsigned int :6;
....................          unsigned int PWMPW:2;
....................       };
....................    };
.................... } PWM6DC;
.................... #byte PWM6DC = 0x38C
.................... 
.................... struct PWM6DCH {
....................    union {
....................       struct {
....................          unsigned int DC2:8;
....................       };
.................... 
....................    union {
....................       struct {
....................          unsigned int PWM6DC2:8;
....................       };
....................    };
.................... 
....................       struct {
....................          unsigned int PWMPW2:8;
....................       };
....................    };
.................... } PWM6DCH;
.................... #byte PWM6DCH = 0x38D
.................... 
.................... struct PWM6CON {
....................    union {
....................       struct {
....................          unsigned int :4;
....................          unsigned int POL:1;
....................          unsigned int OUT:1;
....................          unsigned int OE:1;
....................          unsigned int EN:1;
....................       };
.................... 
....................       struct {
....................          unsigned int :4;
....................          unsigned int PWM6POL:1;
....................          unsigned int PWM6OUT:1;
....................          unsigned int PWM6OE:1;
....................          unsigned int PWM6EN:1;
....................       };
....................    };
.................... } PWM6CON;
.................... #byte PWM6CON = 0x38E
.................... 
.................... struct SCANLADRL {
....................    union {
....................       struct {
....................          unsigned int LADR:8;
....................       };
.................... 
....................       struct {
....................          unsigned int SCANLADR:8;
....................       };
....................    };
.................... } SCANLADR;
.................... #byte SCANLADR = 0x40C
.................... 
.................... struct SCANLADRH {
....................    union {
....................       struct {
....................          unsigned int LADR8:2;
....................          unsigned int LADR1:6;
....................       };
.................... 
....................       struct {
....................          unsigned int SCANLADR8:2;
....................          unsigned int SCANLADR1:6;
....................       };
....................    };
.................... } SCANLADRH;
.................... #byte SCANLADRH = 0x40D
.................... 
.................... struct SCANHADRL {
....................    union {
....................       struct {
....................          unsigned int HADR:8;
....................       };
.................... 
....................       struct {
....................          unsigned int SCANHADR:8;
....................       };
....................    };
.................... } SCANHADR;
.................... #byte SCANHADR = 0x40E
.................... 
.................... struct SCANHADRH {
....................    union {
....................       struct {
....................          unsigned int HADR8:2;
....................          unsigned int HADR1:6;
....................       };
.................... 
....................       struct {
....................          unsigned int SCANHADR8:2;
....................          unsigned int SCANHADR1:6;
....................       };
....................    };
.................... } SCANHADRH;
.................... #byte SCANHADRH = 0x40F
.................... 
.................... struct SCANCON0 {
....................    union {
....................       struct {
....................          unsigned int MODE:2;
....................          unsigned int :1;
....................          unsigned int INTM:1;
....................          unsigned int INVALID:1;
....................          unsigned int BUSY:1;
....................          unsigned int SCANGO:1;
....................          unsigned int EN:1;
....................       };
.................... 
....................    union {
....................       struct {
....................          unsigned int SCANMODE:2;
....................          unsigned int :1;
....................          unsigned int SCANINTM:1;
....................          unsigned int SCANINVALID:1;
....................          unsigned int SCANBUSY:1;
....................          unsigned int :1;
....................          unsigned int SCANEN:1;
....................       };
....................    };
.................... 
....................       struct {
....................          unsigned int :4;
....................          unsigned int DABORT:1;
....................       };
....................    };
.................... } SCANCON0;
.................... #byte SCANCON0 = 0x410
.................... 
.................... #byte SCANTRIG = 0x411
.................... 
.................... struct CRCDAT {
....................    unsigned int DATA:8;
.................... } CRCDAT;
.................... #byte CRCDAT = 0x416
.................... 
.................... struct CRCDATH {
....................    unsigned int DATA8:2;
....................    unsigned int DATA1:6;
.................... } CRCDATH;
.................... #byte CRCDATH = 0x417
.................... 
.................... struct CRCACC {
....................    unsigned int ACC:8;
.................... } CRCACC;
.................... #byte CRCACC = 0x418
.................... 
.................... struct CRCACCH {
....................    unsigned int ACC8:2;
....................    unsigned int ACC1:6;
.................... } CRCACCH;
.................... #byte CRCACCH = 0x419
.................... 
.................... struct CRCSHIFT {
....................    unsigned int SHFT:8;
.................... } CRCSHIFT;
.................... #byte CRCSHIFT = 0x41A
.................... 
.................... struct CRCSHIFTH {
....................    unsigned int SHFT8:2;
....................    unsigned int SHFT1:6;
.................... } CRCSHIFTH;
.................... #byte CRCSHIFTH = 0x41B
.................... 
.................... struct CRCXOR {
....................    unsigned int :1;
....................    unsigned int X1:7;
.................... } CRCXOR;
.................... #byte CRCXOR = 0x41C
.................... 
.................... struct CRCXORH {
....................    unsigned int X8:2;
....................    unsigned int X1:6;
.................... } CRCXORH;
.................... #byte CRCXORH = 0x41D
.................... 
.................... struct CRCCON0 {
....................    union {
....................       struct {
....................          unsigned int FULL:1;
....................          unsigned int SHIFTM:1;
....................          unsigned int :2;
....................          unsigned int ACCM:1;
....................          unsigned int BUSY:1;
....................          unsigned int CRCGO:1;
....................          unsigned int EN:1;
....................       };
.................... 
....................       struct {
....................          unsigned int :7;
....................          unsigned int CRCEN:1;
....................       };
....................    };
.................... } CRCCON0;
.................... #byte CRCCON0 = 0x41E
.................... 
.................... struct CRCCON1 {
....................    unsigned int PLEN:4;
....................    unsigned int DLEN:4;
.................... } CRCCON1;
.................... #byte CRCCON1 = 0x41F
.................... 
.................... struct SMT1TMRL {
....................    union {
....................       struct {
....................          unsigned int TMR:8;
....................       };
.................... 
....................       struct {
....................          unsigned int SMT1TMR:8;
....................       };
....................    };
.................... } SMT1TMR;
.................... #byte SMT1TMR = 0x48C
.................... 
.................... struct SMT1TMRH {
....................    union {
....................       struct {
....................          unsigned int TMR8:2;
....................          unsigned int TMR1:6;
....................       };
.................... 
....................       struct {
....................          unsigned int SMT1TMR8:2;
....................          unsigned int SMT1TMR1:6;
....................       };
....................    };
.................... } SMT1TMRH;
.................... #byte SMT1TMRH = 0x48D
.................... 
.................... struct SMT1TMRU {
....................    union {
....................       struct {
....................          unsigned int TMR16:4;
....................          unsigned int TMR2:4;
....................       };
.................... 
....................       struct {
....................          unsigned int SMT1TMR16:4;
....................          unsigned int SMT1TMR2:4;
....................       };
....................    };
.................... } SMT1TMRU;
.................... #byte SMT1TMRU = 0x48E
.................... 
.................... struct SMT1CPRL {
....................    union {
....................       struct {
....................          unsigned int CPR:8;
....................       };
.................... 
....................       struct {
....................          unsigned int SMT1CPR:8;
....................       };
....................    };
.................... } SMT1CPR;
.................... #byte SMT1CPR = 0x48F
.................... 
.................... struct SMT1CPRH {
....................    union {
....................       struct {
....................          unsigned int CPR8:2;
....................          unsigned int CPR1:6;
....................       };
.................... 
....................       struct {
....................          unsigned int SMT1CPR8:2;
....................          unsigned int SMT1CPR1:6;
....................       };
....................    };
.................... } SMT1CPRH;
.................... #byte SMT1CPRH = 0x490
.................... 
.................... struct SMT1CPRU {
....................    union {
....................       struct {
....................          unsigned int CPR16:4;
....................          unsigned int CPR2:4;
....................       };
.................... 
....................       struct {
....................          unsigned int SMT1CPR16:4;
....................          unsigned int SMT1CPR2:4;
....................       };
....................    };
.................... } SMT1CPRU;
.................... #byte SMT1CPRU = 0x491
.................... 
.................... struct SMT1CPWL {
....................    union {
....................       struct {
....................          unsigned int CPW:8;
....................       };
.................... 
....................       struct {
....................          unsigned int SMT1CPW:8;
....................       };
....................    };
.................... } SMT1CPW;
.................... #byte SMT1CPW = 0x492
.................... 
.................... struct SMT1CPWH {
....................    union {
....................       struct {
....................          unsigned int CPW8:2;
....................          unsigned int CPW1:6;
....................       };
.................... 
....................       struct {
....................          unsigned int SMT1CPW8:2;
....................          unsigned int SMT1CPW1:6;
....................       };
....................    };
.................... } SMT1CPWH;
.................... #byte SMT1CPWH = 0x493
.................... 
.................... struct SMT1CPWU {
....................    union {
....................       struct {
....................          unsigned int CPW16:4;
....................          unsigned int CPW2:4;
....................       };
.................... 
....................       struct {
....................          unsigned int SMT1CPW16:4;
....................          unsigned int SMT1CPW2:4;
....................       };
....................    };
.................... } SMT1CPWU;
.................... #byte SMT1CPWU = 0x494
.................... 
.................... struct SMT1PRL {
....................    union {
....................       struct {
....................          unsigned int PR:8;
....................       };
.................... 
....................       struct {
....................          unsigned int SMT1PR:8;
....................       };
....................    };
.................... } SMT1PR;
.................... #byte SMT1PR = 0x495
.................... 
.................... struct SMT1PRH {
....................    union {
....................       struct {
....................          unsigned int PR8:2;
....................          unsigned int PR1:6;
....................       };
.................... 
....................       struct {
....................          unsigned int SMT1PR8:2;
....................          unsigned int SMT1PR1:6;
....................       };
....................    };
.................... } SMT1PRH;
.................... #byte SMT1PRH = 0x496
.................... 
.................... struct SMT1PRU {
....................    union {
....................       struct {
....................          unsigned int PR16:4;
....................          unsigned int PR2:4;
....................       };
.................... 
....................       struct {
....................          unsigned int SMT1PR16:4;
....................          unsigned int SMT1PR2:4;
....................       };
....................    };
.................... } SMT1PRU;
.................... #byte SMT1PRU = 0x497
.................... 
.................... struct SMT1CON0 {
....................    union {
....................       struct {
....................          unsigned int PS:2;
....................          unsigned int CPOL:1;
....................          unsigned int SPOL:1;
....................          unsigned int WPOL:1;
....................          unsigned int STP:1;
....................          unsigned int :1;
....................          unsigned int EN:1;
....................       };
.................... 
....................       struct {
....................          unsigned int SMT1PS:2;
....................          unsigned int SMT1CPOL:1;
....................          unsigned int SMT1SPOL:1;
....................          unsigned int SMT1WOL:1;
....................          unsigned int SMT1STP:1;
....................          unsigned int :1;
....................          unsigned int SMT1EN:1;
....................       };
....................    };
.................... } SMT1CON0;
.................... #byte SMT1CON0 = 0x498
.................... 
.................... struct SMT1CON1 {
....................    union {
....................       struct {
....................          unsigned int MODE:4;
....................          unsigned int :2;
....................          unsigned int REPEAT:1;
....................          unsigned int GO:1;
....................       };
.................... 
....................       struct {
....................          unsigned int :6;
....................          unsigned int SMT1REPEAT:1;
....................          unsigned int SMT1GO:1;
....................       };
....................    };
.................... } SMT1CON1;
.................... #byte SMT1CON1 = 0x499
.................... 
.................... struct SMT1STAT {
....................    union {
....................       struct {
....................          unsigned int AS:1;
....................          unsigned int WS:1;
....................          unsigned int TS:1;
....................          unsigned int :2;
....................          unsigned int RST:1;
....................          unsigned int CPWUP:1;
....................          unsigned int CPRUP:1;
....................       };
.................... 
....................    union {
....................       struct {
....................          unsigned int SMT1AS:1;
....................          unsigned int SMT1WS:1;
....................          unsigned int SMT1TS:1;
....................          unsigned int :2;
....................          unsigned int SMT1RESET:1;
....................          unsigned int SMT1CPWUP:1;
....................          unsigned int SMT1CPRUP:1;
....................       };
....................    };
.................... 
....................       struct {
....................          unsigned int :5;
....................          unsigned int SMT1RST:1;
....................       };
....................    };
.................... } SMT1STAT;
.................... #byte SMT1STAT = 0x49A
.................... 
.................... #byte SMT1CLK = 0x49B
.................... 
.................... #byte SMT1SIG = 0x49C
.................... 
.................... #byte SMT1WIN = 0x49D
.................... 
.................... struct SMT2TMRL {
....................    union {
....................       struct {
....................          unsigned int TMR:8;
....................       };
.................... 
....................       struct {
....................          unsigned int SMT2TMR:8;
....................       };
....................    };
.................... } SMT2TMR;
.................... #byte SMT2TMR = 0x50C
.................... 
.................... struct SMT2TMRH {
....................    union {
....................       struct {
....................          unsigned int TMR8:2;
....................          unsigned int TMR1:6;
....................       };
.................... 
....................       struct {
....................          unsigned int SMT2TMR8:2;
....................          unsigned int SMT2TMR1:6;
....................       };
....................    };
.................... } SMT2TMRH;
.................... #byte SMT2TMRH = 0x50D
.................... 
.................... struct SMT2TMRU {
....................    union {
....................       struct {
....................          unsigned int TMR16:4;
....................          unsigned int TMR2:4;
....................       };
.................... 
....................       struct {
....................          unsigned int SMT2TMR16:4;
....................          unsigned int SMT2TMR2:4;
....................       };
....................    };
.................... } SMT2TMRU;
.................... #byte SMT2TMRU = 0x50E
.................... 
.................... struct SMT2CPRL {
....................    union {
....................       struct {
....................          unsigned int CPR:8;
....................       };
.................... 
....................       struct {
....................          unsigned int SMT2CPR:8;
....................       };
....................    };
.................... } SMT2CPR;
.................... #byte SMT2CPR = 0x50F
.................... 
.................... struct SMT2CPRH {
....................    union {
....................       struct {
....................          unsigned int CPR8:2;
....................          unsigned int CPR1:6;
....................       };
.................... 
....................       struct {
....................          unsigned int SMT2CPR8:2;
....................          unsigned int SMT2CPR1:6;
....................       };
....................    };
.................... } SMT2CPRH;
.................... #byte SMT2CPRH = 0x510
.................... 
.................... struct SMT2CPRU {
....................    union {
....................       struct {
....................          unsigned int CPR16:4;
....................          unsigned int CPR2:4;
....................       };
.................... 
....................       struct {
....................          unsigned int SMT2CPR16:4;
....................          unsigned int SMT2CPR2:4;
....................       };
....................    };
.................... } SMT2CPRU;
.................... #byte SMT2CPRU = 0x511
.................... 
.................... struct SMT2CPWL {
....................    union {
....................       struct {
....................          unsigned int CPW:8;
....................       };
.................... 
....................       struct {
....................          unsigned int SMT2CPW:8;
....................       };
....................    };
.................... } SMT2CPW;
.................... #byte SMT2CPW = 0x512
.................... 
.................... struct SMT2CPWH {
....................    union {
....................       struct {
....................          unsigned int CPW8:2;
....................          unsigned int CPW1:6;
....................       };
.................... 
....................       struct {
....................          unsigned int SMT2CPW8:2;
....................          unsigned int SMT2CPW1:6;
....................       };
....................    };
.................... } SMT2CPWH;
.................... #byte SMT2CPWH = 0x513
.................... 
.................... struct SMT2CPWU {
....................    union {
....................       struct {
....................          unsigned int CPW16:4;
....................          unsigned int CPW2:4;
....................       };
.................... 
....................       struct {
....................          unsigned int SMT2CPW16:4;
....................          unsigned int SMT2CPW2:4;
....................       };
....................    };
.................... } SMT2CPWU;
.................... #byte SMT2CPWU = 0x514
.................... 
.................... struct SMT2PRL {
....................    union {
....................       struct {
....................          unsigned int PR:8;
....................       };
.................... 
....................       struct {
....................          unsigned int SMT2PR:8;
....................       };
....................    };
.................... } SMT2PR;
.................... #byte SMT2PR = 0x515
.................... 
.................... struct SMT2PRH {
....................    union {
....................       struct {
....................          unsigned int PR8:2;
....................          unsigned int PR1:6;
....................       };
.................... 
....................       struct {
....................          unsigned int SMT2PR8:2;
....................          unsigned int SMT2PR1:6;
....................       };
....................    };
.................... } SMT2PRH;
.................... #byte SMT2PRH = 0x516
.................... 
.................... struct SMT2PRU {
....................    union {
....................       struct {
....................          unsigned int PR16:4;
....................          unsigned int PR2:4;
....................       };
.................... 
....................       struct {
....................          unsigned int SMT2PR16:4;
....................          unsigned int SMT2PR2:4;
....................       };
....................    };
.................... } SMT2PRU;
.................... #byte SMT2PRU = 0x517
.................... 
.................... struct SMT2CON0 {
....................    union {
....................       struct {
....................          unsigned int PS:2;
....................          unsigned int CPOL:1;
....................          unsigned int SPOL:1;
....................          unsigned int WPOL:1;
....................          unsigned int STP:1;
....................          unsigned int :1;
....................          unsigned int EN:1;
....................       };
.................... 
....................       struct {
....................          unsigned int SMT2PS:2;
....................          unsigned int SMT2CPOL:1;
....................          unsigned int SMT2SPOL:1;
....................          unsigned int SMT2WOL:1;
....................          unsigned int SMT2STP:1;
....................          unsigned int :1;
....................          unsigned int SMT2EN:1;
....................       };
....................    };
.................... } SMT2CON0;
.................... #byte SMT2CON0 = 0x518
.................... 
.................... struct SMT2CON1 {
....................    union {
....................       struct {
....................          unsigned int MODE:4;
....................          unsigned int :2;
....................          unsigned int REPEAT:1;
....................          unsigned int GO:1;
....................       };
.................... 
....................       struct {
....................          unsigned int :6;
....................          unsigned int SMT2REPEAT:1;
....................          unsigned int SMT2GO:1;
....................       };
....................    };
.................... } SMT2CON1;
.................... #byte SMT2CON1 = 0x519
.................... 
.................... struct SMT2STAT {
....................    union {
....................       struct {
....................          unsigned int AS:1;
....................          unsigned int WS:1;
....................          unsigned int TS:1;
....................          unsigned int :2;
....................          unsigned int RST:1;
....................          unsigned int CPWUP:1;
....................          unsigned int CPRUP:1;
....................       };
.................... 
....................    union {
....................       struct {
....................          unsigned int SMT2AS:1;
....................          unsigned int SMT2WS:1;
....................          unsigned int SMT2TS:1;
....................          unsigned int :2;
....................          unsigned int SMT2RESET:1;
....................          unsigned int SMT2CPWUP:1;
....................          unsigned int SMT2CPRUP:1;
....................       };
....................    };
.................... 
....................       struct {
....................          unsigned int :5;
....................          unsigned int SMT2RST:1;
....................       };
....................    };
.................... } SMT2STAT;
.................... #byte SMT2STAT = 0x51A
.................... 
.................... #byte SMT2CLK = 0x51B
.................... 
.................... #byte SMT2SIG = 0x51C
.................... 
.................... #byte SMT2WIN = 0x51D
.................... 
.................... struct NCO1ACC {
....................    unsigned int NCO1ACC:8;
.................... } NCO1ACC;
.................... #byte NCO1ACC = 0x58C
.................... 
.................... struct NCO1ACCH {
....................    unsigned int NCO1ACC8:2;
....................    unsigned int NCO1ACC1:6;
.................... } NCO1ACCH;
.................... #byte NCO1ACCH = 0x58D
.................... 
.................... struct NCO1ACCU {
....................    unsigned int NCO1ACC16:4;
....................    unsigned int NCO1ACC2:4;
.................... } NCO1ACCU;
.................... #byte NCO1ACCU = 0x58E
.................... 
.................... struct NCO1INC {
....................    unsigned int NCO1INC:8;
.................... } NCO1INC;
.................... #byte NCO1INC = 0x58F
.................... 
.................... struct NCO1INCH {
....................    unsigned int NCO1INC8:2;
....................    unsigned int NCO1INC1:6;
.................... } NCO1INCH;
.................... #byte NCO1INCH = 0x590
.................... 
.................... struct NCO1INCU {
....................    unsigned int NCO1INC16:4;
....................    unsigned int NCO1INC2:4;
.................... } NCO1INCU;
.................... #byte NCO1INCU = 0x591
.................... 
.................... struct NCO1CON {
....................    unsigned int N1PFM:1;
....................    unsigned int :3;
....................    unsigned int N1POL:1;
....................    unsigned int N1OUT:1;
....................    unsigned int N1OE:1;
....................    unsigned int N1EN:1;
.................... } NCO1CON;
.................... #byte NCO1CON = 0x592
.................... 
.................... struct NCO1CLK {
....................    unsigned int N1CKS:4;
....................    unsigned int :1;
....................    unsigned int N1PWS:3;
.................... } NCO1CLK;
.................... #byte NCO1CLK = 0x593
.................... 
.................... struct CWG1CLKCON {
....................    union {
....................       struct {
....................          unsigned int CS:1;
....................       };
.................... 
....................       struct {
....................          unsigned int CWG1CS:1;
....................       };
....................    };
.................... } CWG1CLKCON;
.................... #byte CWG1CLKCON = 0x60C
.................... 
.................... #byte CWG1ISM = 0x60D
.................... 
.................... #byte CWG1DBR = 0x60E
.................... 
.................... #byte CWG1DBF = 0x60F
.................... 
.................... struct CWG1CON0 {
....................    union {
....................       struct {
....................          unsigned int MODE:3;
....................          unsigned int :3;
....................          unsigned int LD:1;
....................          unsigned int EN:1;
....................       };
.................... 
....................    union {
....................       struct {
....................          unsigned int CWG1MODE:3;
....................          unsigned int :3;
....................          unsigned int CWG1LD:1;
....................          unsigned int G1EN:1;
....................       };
....................    };
.................... 
....................       struct {
....................          unsigned int :7;
....................          unsigned int CWG1EN:1;
....................       };
....................    };
.................... } CWG1CON0;
.................... #byte CWG1CON0 = 0x610
.................... 
.................... struct CWG1CON1 {
....................    union {
....................       struct {
....................          unsigned int POLA:1;
....................          unsigned int POLB:1;
....................          unsigned int POLC:1;
....................          unsigned int POLD:1;
....................          unsigned int :1;
....................          unsigned int IN:1;
....................       };
.................... 
....................       struct {
....................          unsigned int CWG1POLA:1;
....................          unsigned int CWG1POLB:1;
....................          unsigned int CWG1POLC:1;
....................          unsigned int CWG1POLD:1;
....................          unsigned int :1;
....................          unsigned int CWG1IN:1;
....................       };
....................    };
.................... } CWG1CON1;
.................... #byte CWG1CON1 = 0x611
.................... 
.................... struct CWG1AS0 {
....................    union {
....................       struct {
....................          unsigned int :2;
....................          unsigned int LSAC:2;
....................          unsigned int LSBD:2;
....................          unsigned int REN:1;
....................          unsigned int SHUTDOWN:1;
....................       };
.................... 
....................       struct {
....................          unsigned int :2;
....................          unsigned int CWG1LSAC:2;
....................          unsigned int CWG1LSBD:2;
....................          unsigned int CWG1REN:1;
....................          unsigned int CWG1SHUTDOWN:1;
....................       };
....................    };
.................... } CWG1AS0;
.................... #byte CWG1AS0 = 0x612
.................... 
.................... struct CWG1AS1 {
....................    unsigned int AS0E:1;
....................    unsigned int AS1E:1;
....................    unsigned int AS2E:1;
....................    unsigned int AS3E:1;
....................    unsigned int AS4E:1;
....................    unsigned int AS5E:1;
....................    unsigned int AS6E:1;
.................... } CWG1AS1;
.................... #byte CWG1AS1 = 0x613
.................... 
.................... struct CWG1STR {
....................    union {
....................       struct {
....................          unsigned int STRA:1;
....................          unsigned int STRB:1;
....................          unsigned int STRC:1;
....................          unsigned int STRD:1;
....................          unsigned int OVRA:1;
....................          unsigned int OVRB:1;
....................          unsigned int OVRC:1;
....................          unsigned int OVRD:1;
....................       };
.................... 
....................       struct {
....................          unsigned int CWG1STRA:1;
....................          unsigned int CWG1STRB:1;
....................          unsigned int CWG1STRC:1;
....................          unsigned int CWG1STRD:1;
....................          unsigned int CWG1OVRA:1;
....................          unsigned int CWG1OVRB:1;
....................          unsigned int CWG1OVRC:1;
....................          unsigned int CWG1OVRD:1;
....................       };
....................    };
.................... } CWG1STR;
.................... #byte CWG1STR = 0x614
.................... 
.................... struct CWG2CLKCON {
....................    union {
....................       struct {
....................          unsigned int CS:1;
....................       };
.................... 
....................       struct {
....................          unsigned int CWG2CS:1;
....................       };
....................    };
.................... } CWG2CLKCON;
.................... #byte CWG2CLKCON = 0x616
.................... 
.................... #byte CWG2ISM = 0x617
.................... 
.................... #byte CWG2DBR = 0x618
.................... 
.................... #byte CWG2DBF = 0x619
.................... 
.................... struct CWG2CON0 {
....................    union {
....................       struct {
....................          unsigned int MODE:3;
....................          unsigned int :3;
....................          unsigned int LD:1;
....................          unsigned int EN:1;
....................       };
.................... 
....................    union {
....................       struct {
....................          unsigned int CWG2MODE:3;
....................          unsigned int :3;
....................          unsigned int CWG2LD:1;
....................          unsigned int G2EN:1;
....................       };
....................    };
.................... 
....................       struct {
....................          unsigned int :7;
....................          unsigned int CWG2EN:1;
....................       };
....................    };
.................... } CWG2CON0;
.................... #byte CWG2CON0 = 0x61A
.................... 
.................... struct CWG2CON1 {
....................    union {
....................       struct {
....................          unsigned int POLA:1;
....................          unsigned int POLB:1;
....................          unsigned int POLC:1;
....................          unsigned int POLD:1;
....................          unsigned int :1;
....................          unsigned int IN:1;
....................       };
.................... 
....................       struct {
....................          unsigned int CWG2POLA:1;
....................          unsigned int CWG2POLB:1;
....................          unsigned int CWG2POLC:1;
....................          unsigned int CWG2POLD:1;
....................          unsigned int :1;
....................          unsigned int CWG2IN:1;
....................       };
....................    };
.................... } CWG2CON1;
.................... #byte CWG2CON1 = 0x61B
.................... 
.................... struct CWG2AS0 {
....................    union {
....................       struct {
....................          unsigned int :2;
....................          unsigned int LSAC:2;
....................          unsigned int LSBD:2;
....................          unsigned int REN:1;
....................          unsigned int SHUTDOWN:1;
....................       };
.................... 
....................       struct {
....................          unsigned int :2;
....................          unsigned int CWG2LSAC:2;
....................          unsigned int CWG2LSBD:2;
....................          unsigned int CWG2REN:1;
....................          unsigned int CWG2SHUTDOWN:1;
....................       };
....................    };
.................... } CWG2AS0;
.................... #byte CWG2AS0 = 0x61C
.................... 
.................... struct CWG2AS1 {
....................    unsigned int AS0E:1;
....................    unsigned int AS1E:1;
....................    unsigned int AS2E:1;
....................    unsigned int AS3E:1;
....................    unsigned int AS4E:1;
....................    unsigned int AS5E:1;
....................    unsigned int AS6E:1;
.................... } CWG2AS1;
.................... #byte CWG2AS1 = 0x61D
.................... 
.................... struct CWG2STR {
....................    union {
....................       struct {
....................          unsigned int STRA:1;
....................          unsigned int STRB:1;
....................          unsigned int STRC:1;
....................          unsigned int STRD:1;
....................          unsigned int OVRA:1;
....................          unsigned int OVRB:1;
....................          unsigned int OVRC:1;
....................          unsigned int OVRD:1;
....................       };
.................... 
....................       struct {
....................          unsigned int CWG2STRA:1;
....................          unsigned int CWG2STRB:1;
....................          unsigned int CWG2STRC:1;
....................          unsigned int CWG2STRD:1;
....................          unsigned int CWG2OVRA:1;
....................          unsigned int CWG2OVRB:1;
....................          unsigned int CWG2OVRC:1;
....................          unsigned int CWG2OVRD:1;
....................       };
....................    };
.................... } CWG2STR;
.................... #byte CWG2STR = 0x61E
.................... 
.................... struct PIR0 {
....................    unsigned int INTF:1;
....................    unsigned int :3;
....................    unsigned int IOCIF:1;
....................    unsigned int TMR0IF:1;
.................... } PIR0;
.................... #byte PIR0 = 0x70C
.................... 
.................... struct PIR1 {
....................    unsigned int ADIF:1;
....................    unsigned int ADTIF:1;
....................    unsigned int :4;
....................    unsigned int CSWIF:1;
....................    unsigned int OSFIF:1;
.................... } PIR1;
.................... #byte PIR1 = 0x70D
.................... 
.................... struct PIR2 {
....................    unsigned int C1IF:1;
....................    unsigned int C2IF:1;
....................    unsigned int :4;
....................    unsigned int ZCDIF:1;
.................... } PIR2;
.................... #byte PIR2 = 0x70E
.................... 
.................... struct PIR3 {
....................    unsigned int SSP1IF:1;
....................    unsigned int BCL1IF:1;
....................    unsigned int SSP2IF:1;
....................    unsigned int BCL2IF:1;
....................    unsigned int TXIF:1;
....................    unsigned int RCIF:1;
.................... } PIR3;
.................... #byte PIR3 = 0x70F
.................... 
.................... struct PIR4 {
....................    unsigned int TMR1IF:1;
....................    unsigned int TMR2IF:1;
....................    unsigned int TMR3IF:1;
....................    unsigned int TMR4IF:1;
....................    unsigned int TMR5IF:1;
....................    unsigned int TMR6IF:1;
.................... } PIR4;
.................... #byte PIR4 = 0x710
.................... 
.................... struct PIR5 {
....................    unsigned int TMR1GIF:1;
....................    unsigned int TMR3GIF:1;
....................    unsigned int TMR5GIF:1;
....................    unsigned int :1;
....................    unsigned int CLC1IF:1;
....................    unsigned int CLC2IF:1;
....................    unsigned int CLC3IF:1;
....................    unsigned int CLC4IF:1;
.................... } PIR5;
.................... #byte PIR5 = 0x711
.................... 
.................... struct PIR6 {
....................    unsigned int CCP1IF:1;
....................    unsigned int CCP2IF:1;
....................    unsigned int CCP3IF:1;
....................    unsigned int CCP4IF:1;
....................    unsigned int CCP5IF:1;
.................... } PIR6;
.................... #byte PIR6 = 0x712
.................... 
.................... struct PIE0 {
....................    unsigned int INTE:1;
....................    unsigned int :3;
....................    unsigned int IOCIE:1;
....................    unsigned int TMR0IE:1;
.................... } PIE0;
.................... #byte PIE0 = 0x716
.................... 
.................... struct PIE1 {
....................    unsigned int ADIE:1;
....................    unsigned int ADTIE:1;
....................    unsigned int :4;
....................    unsigned int CSWIE:1;
....................    unsigned int OSFIE:1;
.................... } PIE1;
.................... #byte PIE1 = 0x717
.................... 
.................... struct PIE2 {
....................    unsigned int C1IE:1;
....................    unsigned int C2IE:1;
....................    unsigned int :4;
....................    unsigned int ZCDIE:1;
.................... } PIE2;
.................... #byte PIE2 = 0x718
.................... 
.................... struct PIE3 {
....................    unsigned int SSP1IE:1;
....................    unsigned int BCL1IE:1;
....................    unsigned int SSP2IE:1;
....................    unsigned int BCL2IE:1;
....................    unsigned int TXIE:1;
....................    unsigned int RCIE:1;
.................... } PIE3;
.................... #byte PIE3 = 0x719
.................... 
.................... struct PIE4 {
....................    unsigned int TMR1IE:1;
....................    unsigned int TMR2IE:1;
....................    unsigned int TMR3IE:1;
....................    unsigned int TMR4IE:1;
....................    unsigned int TMR5IE:1;
....................    unsigned int TMR6IE:1;
.................... } PIE4;
.................... #byte PIE4 = 0x71A
.................... 
.................... struct PIE5 {
....................    unsigned int TMR1GIE:1;
....................    unsigned int TMR3GIE:1;
....................    unsigned int TMR5GIE:1;
....................    unsigned int :1;
....................    unsigned int CLC1IE:1;
....................    unsigned int CLC2IE:1;
....................    unsigned int CLC3IE:1;
....................    unsigned int CLC4IE:1;
.................... } PIE5;
.................... #byte PIE5 = 0x71B
.................... 
.................... struct PIE6 {
....................    unsigned int CCP1IE:1;
....................    unsigned int CCP2IE:1;
....................    unsigned int CCP3IE:1;
....................    unsigned int CCP4IE:1;
....................    unsigned int CCP5IE:1;
.................... } PIE6;
.................... #byte PIE6 = 0x71C
.................... 
.................... struct PMD0 {
....................    unsigned int IOCMD:1;
....................    unsigned int CLKRMD:1;
....................    unsigned int NVMMD:1;
....................    unsigned int SCANMD:1;
....................    unsigned int CRCMD:1;
....................    unsigned int :1;
....................    unsigned int FVRMD:1;
....................    unsigned int SYSCMD:1;
.................... } PMD0;
.................... #byte PMD0 = 0x796
.................... 
.................... struct PMD1 {
....................    union {
....................       struct {
....................          unsigned int TMR0MD:1;
....................          unsigned int TMR1MD:1;
....................          unsigned int TMR2MD:1;
....................          unsigned int TMR3MD:1;
....................          unsigned int TMR4MD:1;
....................          unsigned int TMR5MD:1;
....................          unsigned int TMR6MD:1;
....................          unsigned int NCOMD:1;
....................       };
.................... 
....................       struct {
....................          unsigned int :7;
....................          unsigned int NCO1MD:1;
....................       };
....................    };
.................... } PMD1;
.................... #byte PMD1 = 0x797
.................... 
.................... struct PMD2 {
....................    unsigned int ZCDMD:1;
....................    unsigned int CMP1MD:1;
....................    unsigned int CMP2MD:1;
....................    unsigned int :2;
....................    unsigned int ADCMD:1;
....................    unsigned int DACMD:1;
.................... } PMD2;
.................... #byte PMD2 = 0x798
.................... 
.................... struct PMD3 {
....................    unsigned int CCP1MD:1;
....................    unsigned int CCP2MD:1;
....................    unsigned int CCP3MD:1;
....................    unsigned int CCP4MD:1;
....................    unsigned int CCP5MD:1;
....................    unsigned int PWM6MD:1;
....................    unsigned int PWM7MD:1;
.................... } PMD3;
.................... #byte PMD3 = 0x799
.................... 
.................... struct PMD4 {
....................    unsigned int CWG1MD:1;
....................    unsigned int CWG2MD:1;
....................    unsigned int CWG3MD:1;
....................    unsigned int :1;
....................    unsigned int MSSP1MD:1;
....................    unsigned int MSSP2MD:1;
....................    unsigned int UART1MD:1;
.................... } PMD4;
.................... #byte PMD4 = 0x79A
.................... 
.................... struct PMD5 {
....................    unsigned int DSMMD:1;
....................    unsigned int CLC1MD:1;
....................    unsigned int CLC2MD:1;
....................    unsigned int CLC3MD:1;
....................    unsigned int CLC4MD:1;
....................    unsigned int :1;
....................    unsigned int SMT1MD:1;
....................    unsigned int SMT2MD:1;
.................... } PMD5;
.................... #byte PMD5 = 0x79B
.................... 
.................... struct WDTCON0 {
....................    union {
....................       struct {
....................          unsigned int SEN:1;
....................          unsigned int WDTPS:5;
....................       };
.................... 
....................    union {
....................       struct {
....................          unsigned int SWDTEN:1;
....................       };
....................    };
.................... 
....................       struct {
....................          unsigned int WDTSEN:1;
....................       };
....................    };
.................... } WDTCON0;
.................... #byte WDTCON0 = 0x80C
.................... 
.................... struct WDTCON1 {
....................    union {
....................       struct {
....................          unsigned int WINDOW:3;
....................          unsigned int :1;
....................          unsigned int WDTCS:3;
....................       };
.................... 
....................       struct {
....................          unsigned int WDTWINDOW:3;
....................       };
....................    };
.................... } WDTCON1;
.................... #byte WDTCON1 = 0x80D
.................... 
.................... struct WDTPSL {
....................    union {
....................       struct {
....................          unsigned int PSCNT:8;
....................       };
.................... 
....................       struct {
....................          unsigned int WDTPSCNT:8;
....................       };
....................    };
.................... } WDTPS;
.................... #byte WDTPS = 0x80E
.................... 
.................... struct WDTPSH {
....................    union {
....................       struct {
....................          unsigned int PSCNT8:2;
....................          unsigned int PSCNT1:6;
....................       };
.................... 
....................       struct {
....................          unsigned int WDTPSCNT8:2;
....................          unsigned int WDTPSCNT1:6;
....................       };
....................    };
.................... } WDTPSH;
.................... #byte WDTPSH = 0x80F
.................... 
.................... struct WDTTMR {
....................    union {
....................       struct {
....................          unsigned int PSCNT16:2;
....................          unsigned int STATE:1;
....................          unsigned int WDTTMR:5;
....................       };
.................... 
....................       struct {
....................          unsigned int WDTPSCNT16:2;
....................          unsigned int WDTSTATE:1;
....................       };
....................    };
.................... } WDTTMR;
.................... #byte WDTTMR = 0x810
.................... 
.................... struct BORCON {
....................    unsigned int BORRDY:1;
....................    unsigned int :6;
....................    unsigned int SBOREN:1;
.................... } BORCON;
.................... #byte BORCON = 0x811
.................... 
.................... 
.................... struct VREGCON {
....................    unsigned int :1;
....................    unsigned int VREGPM:1;
.................... } VREGCON;
.................... #byte VREGCON = 0x812
.................... 
.................... struct PCON0 {
....................    unsigned int BOR:1;
....................    unsigned int POR:1;
....................    unsigned int RI:1;
....................    unsigned int RMCLR:1;
....................    unsigned int RWDT:1;
....................    unsigned int WDTWV:1;
....................    unsigned int STKUNF:1;
....................    unsigned int STKOVF:1;
.................... } PCON0;
.................... #byte PCON0 = 0x813
.................... 
.................... struct CCDCON {
....................    unsigned int CCDS:2;
....................    unsigned int :5;
....................    unsigned int CCDEN:1;
.................... } CCDCON;
.................... #byte CCDCON = 0x814
.................... 
.................... struct NVMADR {
....................    unsigned int NVMADR:8;
.................... } NVMADR;
.................... #byte NVMADR = 0x81A
.................... 
.................... struct NVMADRH {
....................    unsigned int NVMADR8:2;
....................    unsigned int NVMADR1:5;
.................... } NVMADRH;
.................... #byte NVMADRH = 0x81B
.................... 
.................... struct NVMDAT {
....................    unsigned int NVMDAT:8;
.................... } NVMDAT;
.................... #byte NVMDAT = 0x81C
.................... 
.................... struct NVMDATH {
....................    unsigned int NVMDAT8:2;
....................    unsigned int NVMDAT1:4;
.................... } NVMDATH;
.................... #byte NVMDATH = 0x81D
.................... 
.................... struct NVMCON1 {
....................    unsigned int RD:1;
....................    unsigned int WR:1;
....................    unsigned int WREN:1;
....................    unsigned int WRERR:1;
....................    unsigned int FREE:1;
....................    unsigned int LWLO:1;
....................    unsigned int NVMREGS:1;
.................... } NVMCON1;
.................... #byte NVMCON1 = 0x81E
.................... 
.................... #byte NVMCON2 = 0x81F
.................... 
.................... struct CPUDOZE {
....................    unsigned int DOZE:3;
....................    unsigned int :1;
....................    unsigned int DOE:1;
....................    unsigned int ROI:1;
....................    unsigned int DOZEN:1;
....................    unsigned int IDLEN:1;
.................... } CPUDOZE;
.................... #byte CPUDOZE = 0x88C
.................... 
.................... struct OSCCON1 {
....................    unsigned int NDIV:4;
....................    unsigned int NOSC:3;
.................... } OSCCON1;
.................... #byte OSCCON1 = 0x88D
.................... 
.................... struct OSCCON2 {
....................    unsigned int CDIV:4;
....................    unsigned int COSC:3;
.................... } OSCCON2;
.................... #byte OSCCON2 = 0x88E
.................... 
.................... struct OSCCON3 {
....................    unsigned int :3;
....................    unsigned int NOSCR:1;
....................    unsigned int ORDY:1;
....................    unsigned int :1;
....................    unsigned int SOSCPWR:1;
....................    unsigned int CSWHOLD:1;
.................... } OSCCON3;
.................... #byte OSCCON3 = 0x88F
.................... 
.................... struct OSCSTAT {
....................    unsigned int PLLR:1;
....................    unsigned int :1;
....................    unsigned int ADOR:1;
....................    unsigned int SOR:1;
....................    unsigned int LFOR:1;
....................    unsigned int MFOR:1;
....................    unsigned int HFOR:1;
....................    unsigned int EXTOR:1;
.................... } OSCSTAT;
.................... #byte OSCSTAT = 0x890
.................... 
.................... struct OSCEN {
....................    unsigned int :2;
....................    unsigned int ADOEN:1;
....................    unsigned int SOSCEN:1;
....................    unsigned int LFOEN:1;
....................    unsigned int MFOEN:1;
....................    unsigned int HFOEN:1;
....................    unsigned int EXTOEN:1;
.................... } OSCEN;
.................... #byte OSCEN = 0x891
.................... 
.................... #byte OSCTUNE = 0x892
.................... 
.................... #byte OSCFRQ = 0x893
.................... 
.................... struct CLKRCON {
....................    unsigned int CLKRDIV:3;
....................    unsigned int CLKRDC:2;
....................    unsigned int :2;
....................    unsigned int CLKREN:1;
.................... } CLKRCON;
.................... #byte CLKRCON = 0x895
.................... 
.................... #byte MDSRC = 0x899
.................... 
.................... #word MDCAR = 0x89A
.................... 
.................... struct FVRCON {
....................    unsigned int ADFVR:2;
....................    unsigned int CDAFVR:2;
....................    unsigned int TSRNG:1;
....................    unsigned int TSEN:1;
....................    unsigned int FVRRDY:1;
....................    unsigned int FVREN:1;
.................... } FVRCON;
.................... #byte FVRCON = 0x90C
.................... 
.................... struct DAC1CON0 {
....................    union {
....................       struct {
....................          unsigned int NSS:1;
....................          unsigned int :1;
....................          unsigned int PSS:2;
....................          unsigned int OE2:1;
....................          unsigned int OE1:1;
....................          unsigned int :1;
....................          unsigned int EN:1;
....................       };
.................... 
....................       struct {
....................          unsigned int DAC1NSS:1;
....................          unsigned int :1;
....................          unsigned int DAC1PSS:2;
....................          unsigned int DAC1OE2:1;
....................          unsigned int DAC1OE1:1;
....................          unsigned int :1;
....................          unsigned int DAC1EN:1;
....................       };
....................    };
.................... } DAC1CON0;
.................... #byte DAC1CON0 = 0x90E
.................... 
.................... #byte DAC1CON1 = 0x90F
.................... 
.................... struct ZCD1CON {
....................    union {
....................       struct {
....................          unsigned int INTN:1;
....................          unsigned int INTP:1;
....................          unsigned int :2;
....................          unsigned int POL:1;
....................          unsigned int OUT:1;
....................          unsigned int :1;
....................          unsigned int EN:1;
....................       };
.................... 
....................    union {
....................       struct {
....................          unsigned int ZCD1INTN:1;
....................          unsigned int ZCD1INTP:1;
....................          unsigned int :2;
....................          unsigned int ZCD1POL:1;
....................          unsigned int ZCD1OUT:1;
....................          unsigned int :1;
....................          unsigned int ZCD1EN:1;
....................       };
....................    };
.................... 
....................       struct {
....................          unsigned int ZCDINTN:1;
....................          unsigned int ZCDINTP:1;
....................          unsigned int :2;
....................          unsigned int ZCDPOL:1;
....................          unsigned int ZCDOUT:1;
....................          unsigned int :1;
....................          unsigned int ZCDEN:1;
....................       };
....................    };
.................... } ZCD1CON;
.................... #byte ZCD1CON = 0x91F
.................... 
.................... struct CMOUT {
....................    union {
....................       struct {
....................          unsigned int MC1OUT:1;
....................          unsigned int MC2OUT:1;
....................       };
.................... 
....................       struct {
....................          unsigned int C1OUT:1;
....................          unsigned int C2OUT:1;
....................       };
....................    };
.................... } CMOUT;
.................... #byte CMOUT = 0x98F
.................... 
.................... struct CM1CON0 {
....................    union {
....................       struct {
....................          unsigned int SYNC:1;
....................          unsigned int HYS:1;
....................          unsigned int Reserved:1;
....................          unsigned int ZLF:1;
....................          unsigned int POL:1;
....................          unsigned int OE:1;
....................          unsigned int OUT:1;
....................          unsigned int ON:1;
....................       };
.................... 
....................       struct {
....................          unsigned int C1SYNC:1;
....................          unsigned int C1HYS:1;
....................          unsigned int C1SP:1;
....................          unsigned int C1ZLF:1;
....................          unsigned int C1POL:1;
....................          unsigned int C1OE:1;
....................          unsigned int C1OUT:1;
....................          unsigned int C1ON:1;
....................       };
....................    };
.................... } CM1CON0;
.................... #byte CM1CON0 = 0x990
.................... 
.................... struct CM1CON1 {
....................    union {
....................       struct {
....................          unsigned int INTN:1;
....................          unsigned int INTP:1;
....................       };
.................... 
....................       struct {
....................          unsigned int C1INTN:1;
....................          unsigned int C1INTP:1;
....................       };
....................    };
.................... } CM1CON1;
.................... #byte CM1CON1 = 0x991
.................... 
.................... #byte CM1NSEL = 0x992
.................... 
.................... #byte CM1PSEL = 0x993
.................... 
.................... struct CM2CON0 {
....................    union {
....................       struct {
....................          unsigned int SYNC:1;
....................          unsigned int HYS:1;
....................          unsigned int Reserved:1;
....................          unsigned int ZLF:1;
....................          unsigned int POL:1;
....................          unsigned int OE:1;
....................          unsigned int OUT:1;
....................          unsigned int ON:1;
....................       };
.................... 
....................       struct {
....................          unsigned int C2SYNC:1;
....................          unsigned int C2HYS:1;
....................          unsigned int C2SP:1;
....................          unsigned int C2ZLF:1;
....................          unsigned int C2POL:1;
....................          unsigned int C2OE:1;
....................          unsigned int C2OUT:1;
....................          unsigned int C2ON:1;
....................       };
....................    };
.................... } CM2CON0;
.................... #byte CM2CON0 = 0x994
.................... 
.................... struct CM2CON1 {
....................    union {
....................       struct {
....................          unsigned int INTN:1;
....................          unsigned int INTP:1;
....................       };
.................... 
....................       struct {
....................          unsigned int C2INTN:1;
....................          unsigned int C2INTP:1;
....................       };
....................    };
.................... } CM2CON1;
.................... #byte CM2CON1 = 0x995
.................... 
.................... #byte CM2NSEL = 0x996
.................... 
.................... #byte CM2PSEL = 0x997
.................... 
.................... struct CLCDATA {
....................    unsigned int MLC1OUT:1;
....................    unsigned int MLC2OUT:1;
....................    unsigned int MLC3OUT:1;
....................    unsigned int MLC4OUT:1;
.................... } CLCDATA;
.................... #byte CLCDATA = 0xE0F
.................... 
.................... struct CLC1CON {
....................    union {
....................       struct {
....................          unsigned int LC1MODE:3;
....................          unsigned int LC1INTN:1;
....................          unsigned int LC1INTP:1;
....................          unsigned int LC1OUT:1;
....................          unsigned int LC1OE:1;
....................          unsigned int LC1EN:1;
....................       };
.................... 
....................       struct {
....................          unsigned int MODE:3;
....................          unsigned int INTN:1;
....................          unsigned int INTP:1;
....................          unsigned int OUT:1;
....................          unsigned int OE:1;
....................          unsigned int EN:1;
....................       };
....................    };
.................... } CLC1CON;
.................... #byte CLC1CON = 0xE10
.................... 
.................... struct CLC1POL {
....................    union {
....................       struct {
....................          unsigned int LC1G1POL:1;
....................          unsigned int LC1G2POL:1;
....................          unsigned int LC1G3POL:1;
....................          unsigned int LC1G4POL:1;
....................          unsigned int :3;
....................          unsigned int LC1POL:1;
....................       };
.................... 
....................       struct {
....................          unsigned int G1POL:1;
....................          unsigned int G2POL:1;
....................          unsigned int G3POL:1;
....................          unsigned int G4POL:1;
....................          unsigned int :3;
....................          unsigned int POL:1;
....................       };
....................    };
.................... } CLC1POL;
.................... #byte CLC1POL = 0xE11
.................... 
.................... struct CLC1SEL0 {
....................    union {
....................       struct {
....................          unsigned int LC1D1S:8;
....................       };
.................... 
....................       struct {
....................          unsigned int D1S:8;
....................       };
....................    };
.................... } CLC1SEL0;
.................... #byte CLC1SEL0 = 0xE12
.................... 
.................... struct CLC1SEL1 {
....................    union {
....................       struct {
....................          unsigned int LC1D2S:8;
....................       };
.................... 
....................       struct {
....................          unsigned int D2S:8;
....................       };
....................    };
.................... } CLC1SEL1;
.................... #byte CLC1SEL1 = 0xE13
.................... 
.................... struct CLC1SEL2 {
....................    union {
....................       struct {
....................          unsigned int LC1D3S:8;
....................       };
.................... 
....................       struct {
....................          unsigned int D3S:8;
....................       };
....................    };
.................... } CLC1SEL2;
.................... #byte CLC1SEL2 = 0xE14
.................... 
.................... struct CLC1SEL3 {
....................    union {
....................       struct {
....................          unsigned int LC1D4S:8;
....................       };
.................... 
....................       struct {
....................          unsigned int D4S:8;
....................       };
....................    };
.................... } CLC1SEL3;
.................... #byte CLC1SEL3 = 0xE15
.................... 
.................... struct CLC1GLS0 {
....................    union {
....................       struct {
....................          unsigned int LC1G1D1N:1;
....................          unsigned int LC1G1D1T:1;
....................          unsigned int LC1G1D2N:1;
....................          unsigned int LC1G1D2T:1;
....................          unsigned int LC1G1D3N:1;
....................          unsigned int LC1G1D3T:1;
....................          unsigned int LC1G1D4N:1;
....................          unsigned int LC1G1D4T:1;
....................       };
.................... 
....................       struct {
....................          unsigned int D1N:1;
....................          unsigned int D1T:1;
....................          unsigned int D2N:1;
....................          unsigned int D2T:1;
....................          unsigned int D3N:1;
....................          unsigned int D3T:1;
....................          unsigned int D4N:1;
....................          unsigned int D4T:1;
....................       };
....................    };
.................... } CLC1GLS0;
.................... #byte CLC1GLS0 = 0xE16
.................... 
.................... struct CLC1GLS1 {
....................    union {
....................       struct {
....................          unsigned int LC1G2D1N:1;
....................          unsigned int LC1G2D1T:1;
....................          unsigned int LC1G2D2N:1;
....................          unsigned int LC1G2D2T:1;
....................          unsigned int LC1G2D3N:1;
....................          unsigned int LC1G2D3T:1;
....................          unsigned int LC1G2D4N:1;
....................          unsigned int LC1G2D4T:1;
....................       };
.................... 
....................       struct {
....................          unsigned int D1N:1;
....................          unsigned int D1T:1;
....................          unsigned int D2N:1;
....................          unsigned int D2T:1;
....................          unsigned int D3N:1;
....................          unsigned int D3T:1;
....................          unsigned int D4N:1;
....................          unsigned int D4T:1;
....................       };
....................    };
.................... } CLC1GLS1;
.................... #byte CLC1GLS1 = 0xE17
.................... 
.................... struct CLC1GLS2 {
....................    union {
....................       struct {
....................          unsigned int LC1G3D1N:1;
....................          unsigned int LC1G3D1T:1;
....................          unsigned int LC1G3D2N:1;
....................          unsigned int LC1G3D2T:1;
....................          unsigned int LC1G3D3N:1;
....................          unsigned int LC1G3D3T:1;
....................          unsigned int LC1G3D4N:1;
....................          unsigned int LC1G3D4T:1;
....................       };
.................... 
....................       struct {
....................          unsigned int D1N:1;
....................          unsigned int D1T:1;
....................          unsigned int D2N:1;
....................          unsigned int D2T:1;
....................          unsigned int D3N:1;
....................          unsigned int D3T:1;
....................          unsigned int D4N:1;
....................          unsigned int D4T:1;
....................       };
....................    };
.................... } CLC1GLS2;
.................... #byte CLC1GLS2 = 0xE18
.................... 
.................... struct CLC1GLS3 {
....................    union {
....................       struct {
....................          unsigned int LC1G4D1N:1;
....................          unsigned int LC1G4D1T:1;
....................          unsigned int LC1G4D2N:1;
....................          unsigned int LC1G4D2T:1;
....................          unsigned int LC1G4D3N:1;
....................          unsigned int LC1G4D3T:1;
....................          unsigned int LC1G4D4N:1;
....................          unsigned int LC1G4D4T:1;
....................       };
.................... 
....................       struct {
....................          unsigned int G4D1N:1;
....................          unsigned int G4D1T:1;
....................          unsigned int G4D2N:1;
....................          unsigned int G4D2T:1;
....................          unsigned int G4D3N:1;
....................          unsigned int G4D3T:1;
....................          unsigned int G4D4N:1;
....................          unsigned int G4D4T:1;
....................       };
....................    };
.................... } CLC1GLS3;
.................... #byte CLC1GLS3 = 0xE19
.................... 
.................... struct CLC2CON {
....................    union {
....................       struct {
....................          unsigned int LC2MODE:3;
....................          unsigned int LC2INTN:1;
....................          unsigned int LC2INTP:1;
....................          unsigned int LC2OUT:1;
....................          unsigned int LC2OE:1;
....................          unsigned int LC2EN:1;
....................       };
.................... 
....................       struct {
....................          unsigned int MODE:3;
....................          unsigned int INTN:1;
....................          unsigned int INTP:1;
....................          unsigned int OUT:1;
....................          unsigned int OE:1;
....................          unsigned int EN:1;
....................       };
....................    };
.................... } CLC2CON;
.................... #byte CLC2CON = 0xE1A
.................... 
.................... struct CLC2POL {
....................    union {
....................       struct {
....................          unsigned int LC2G1POL:1;
....................          unsigned int LC2G2POL:1;
....................          unsigned int LC2G3POL:1;
....................          unsigned int LC2G4POL:1;
....................          unsigned int :3;
....................          unsigned int LC2POL:1;
....................       };
.................... 
....................       struct {
....................          unsigned int G1POL:1;
....................          unsigned int G2POL:1;
....................          unsigned int G3POL:1;
....................          unsigned int G4POL:1;
....................          unsigned int :3;
....................          unsigned int POL:1;
....................       };
....................    };
.................... } CLC2POL;
.................... #byte CLC2POL = 0xE1B
.................... 
.................... struct CLC2SEL0 {
....................    union {
....................       struct {
....................          unsigned int LC2D1S:8;
....................       };
.................... 
....................       struct {
....................          unsigned int D1S:8;
....................       };
....................    };
.................... } CLC2SEL0;
.................... #byte CLC2SEL0 = 0xE1C
.................... 
.................... struct CLC2SEL1 {
....................    union {
....................       struct {
....................          unsigned int LC2D2S:8;
....................       };
.................... 
....................       struct {
....................          unsigned int D2S:8;
....................       };
....................    };
.................... } CLC2SEL1;
.................... #byte CLC2SEL1 = 0xE1D
.................... 
.................... struct CLC2SEL2 {
....................    union {
....................       struct {
....................          unsigned int LC2D3S:8;
....................       };
.................... 
....................       struct {
....................          unsigned int D3S:8;
....................       };
....................    };
.................... } CLC2SEL2;
.................... #byte CLC2SEL2 = 0xE1E
.................... 
.................... struct CLC2SEL3 {
....................    union {
....................       struct {
....................          unsigned int LC2D4S:8;
....................       };
.................... 
....................       struct {
....................          unsigned int D4S:8;
....................       };
....................    };
.................... } CLC2SEL3;
.................... #byte CLC2SEL3 = 0xE1F
.................... 
.................... struct CLC2GLS0 {
....................    union {
....................       struct {
....................          unsigned int LC2G1D1N:1;
....................          unsigned int LC2G1D1T:1;
....................          unsigned int LC2G1D2N:1;
....................          unsigned int LC2G1D2T:1;
....................          unsigned int LC2G1D3N:1;
....................          unsigned int LC2G1D3T:1;
....................          unsigned int LC2G1D4N:1;
....................          unsigned int LC2G1D4T:1;
....................       };
.................... 
....................       struct {
....................          unsigned int D1N:1;
....................          unsigned int D1T:1;
....................          unsigned int D2N:1;
....................          unsigned int D2T:1;
....................          unsigned int D3N:1;
....................          unsigned int D3T:1;
....................          unsigned int D4N:1;
....................          unsigned int D4T:1;
....................       };
....................    };
.................... } CLC2GLS0;
.................... #byte CLC2GLS0 = 0xE20
.................... 
.................... struct CLC2GLS1 {
....................    union {
....................       struct {
....................          unsigned int LC2G2D1N:1;
....................          unsigned int LC2G2D1T:1;
....................          unsigned int LC2G2D2N:1;
....................          unsigned int LC2G2D2T:1;
....................          unsigned int LC2G2D3N:1;
....................          unsigned int LC2G2D3T:1;
....................          unsigned int LC2G2D4N:1;
....................          unsigned int LC2G2D4T:1;
....................       };
.................... 
....................       struct {
....................          unsigned int D1N:1;
....................          unsigned int D1T:1;
....................          unsigned int D2N:1;
....................          unsigned int D2T:1;
....................          unsigned int D3N:1;
....................          unsigned int D3T:1;
....................          unsigned int D4N:1;
....................          unsigned int D4T:1;
....................       };
....................    };
.................... } CLC2GLS1;
.................... #byte CLC2GLS1 = 0xE21
.................... 
.................... struct CLC2GLS2 {
....................    union {
....................       struct {
....................          unsigned int LC2G3D1N:1;
....................          unsigned int LC2G3D1T:1;
....................          unsigned int LC2G3D2N:1;
....................          unsigned int LC2G3D2T:1;
....................          unsigned int LC2G3D3N:1;
....................          unsigned int LC2G3D3T:1;
....................          unsigned int LC2G3D4N:1;
....................          unsigned int LC2G3D4T:1;
....................       };
.................... 
....................       struct {
....................          unsigned int D1N:1;
....................          unsigned int D1T:1;
....................          unsigned int D2N:1;
....................          unsigned int D2T:1;
....................          unsigned int D3N:1;
....................          unsigned int D3T:1;
....................          unsigned int D4N:1;
....................          unsigned int D4T:1;
....................       };
....................    };
.................... } CLC2GLS2;
.................... #byte CLC2GLS2 = 0xE22
.................... 
.................... struct CLC2GLS3 {
....................    union {
....................       struct {
....................          unsigned int LC2G4D1N:1;
....................          unsigned int LC2G4D1T:1;
....................          unsigned int LC2G4D2N:1;
....................          unsigned int LC2G4D2T:1;
....................          unsigned int LC2G4D3N:1;
....................          unsigned int LC2G4D3T:1;
....................          unsigned int LC2G4D4N:1;
....................          unsigned int LC2G4D4T:1;
....................       };
.................... 
....................       struct {
....................          unsigned int G4D1N:1;
....................          unsigned int G4D1T:1;
....................          unsigned int G4D2N:1;
....................          unsigned int G4D2T:1;
....................          unsigned int G4D3N:1;
....................          unsigned int G4D3T:1;
....................          unsigned int G4D4N:1;
....................          unsigned int G4D4T:1;
....................       };
....................    };
.................... } CLC2GLS3;
.................... #byte CLC2GLS3 = 0xE23
.................... 
.................... struct CLC3CON {
....................    union {
....................       struct {
....................          unsigned int LC3MODE:3;
....................          unsigned int LC3INTN:1;
....................          unsigned int LC3INTP:1;
....................          unsigned int LC3OUT:1;
....................          unsigned int LC3OE:1;
....................          unsigned int LC3EN:1;
....................       };
.................... 
....................       struct {
....................          unsigned int MODE:3;
....................          unsigned int INTN:1;
....................          unsigned int INTP:1;
....................          unsigned int OUT:1;
....................          unsigned int OE:1;
....................          unsigned int EN:1;
....................       };
....................    };
.................... } CLC3CON;
.................... #byte CLC3CON = 0xE24
.................... 
.................... struct CLC3POL {
....................    union {
....................       struct {
....................          unsigned int LC3G1POL:1;
....................          unsigned int LC3G2POL:1;
....................          unsigned int LC3G3POL:1;
....................          unsigned int LC3G4POL:1;
....................          unsigned int :3;
....................          unsigned int LC3POL:1;
....................       };
.................... 
....................       struct {
....................          unsigned int G1POL:1;
....................          unsigned int G2POL:1;
....................          unsigned int G3POL:1;
....................          unsigned int G4POL:1;
....................          unsigned int :3;
....................          unsigned int POL:1;
....................       };
....................    };
.................... } CLC3POL;
.................... #byte CLC3POL = 0xE25
.................... 
.................... struct CLC3SEL0 {
....................    union {
....................       struct {
....................          unsigned int LC3D1S:8;
....................       };
.................... 
....................       struct {
....................          unsigned int D1S:8;
....................       };
....................    };
.................... } CLC3SEL0;
.................... #byte CLC3SEL0 = 0xE26
.................... 
.................... struct CLC3SEL1 {
....................    union {
....................       struct {
....................          unsigned int LC3D2S:8;
....................       };
.................... 
....................       struct {
....................          unsigned int D2S:8;
....................       };
....................    };
.................... } CLC3SEL1;
.................... #byte CLC3SEL1 = 0xE27
.................... 
.................... struct CLC3SEL2 {
....................    union {
....................       struct {
....................          unsigned int LC3D3S:8;
....................       };
.................... 
....................       struct {
....................          unsigned int D3S:8;
....................       };
....................    };
.................... } CLC3SEL2;
.................... #byte CLC3SEL2 = 0xE28
.................... 
.................... struct CLC3SEL3 {
....................    union {
....................       struct {
....................          unsigned int LC3D4S:8;
....................       };
.................... 
....................       struct {
....................          unsigned int D4S:8;
....................       };
....................    };
.................... } CLC3SEL3;
.................... #byte CLC3SEL3 = 0xE29
.................... 
.................... struct CLC3GLS0 {
....................    union {
....................       struct {
....................          unsigned int LC3G1D1N:1;
....................          unsigned int LC3G1D1T:1;
....................          unsigned int LC3G1D2N:1;
....................          unsigned int LC3G1D2T:1;
....................          unsigned int LC3G1D3N:1;
....................          unsigned int LC3G1D3T:1;
....................          unsigned int LC3G1D4N:1;
....................          unsigned int LC3G1D4T:1;
....................       };
.................... 
....................       struct {
....................          unsigned int D1N:1;
....................          unsigned int D1T:1;
....................          unsigned int D2N:1;
....................          unsigned int D2T:1;
....................          unsigned int D3N:1;
....................          unsigned int D3T:1;
....................          unsigned int D4N:1;
....................          unsigned int D4T:1;
....................       };
....................    };
.................... } CLC3GLS0;
.................... #byte CLC3GLS0 = 0xE2A
.................... 
.................... struct CLC3GLS1 {
....................    union {
....................       struct {
....................          unsigned int LC3G2D1N:1;
....................          unsigned int LC3G2D1T:1;
....................          unsigned int LC3G2D2N:1;
....................          unsigned int LC3G2D2T:1;
....................          unsigned int LC3G2D3N:1;
....................          unsigned int LC3G2D3T:1;
....................          unsigned int LC3G2D4N:1;
....................          unsigned int LC3G2D4T:1;
....................       };
.................... 
....................       struct {
....................          unsigned int D1N:1;
....................          unsigned int D1T:1;
....................          unsigned int D2N:1;
....................          unsigned int D2T:1;
....................          unsigned int D3N:1;
....................          unsigned int D3T:1;
....................          unsigned int D4N:1;
....................          unsigned int D4T:1;
....................       };
....................    };
.................... } CLC3GLS1;
.................... #byte CLC3GLS1 = 0xE2B
.................... 
.................... struct CLC3GLS2 {
....................    union {
....................       struct {
....................          unsigned int LC3G3D1N:1;
....................          unsigned int LC3G3D1T:1;
....................          unsigned int LC3G3D2N:1;
....................          unsigned int LC3G3D2T:1;
....................          unsigned int LC3G3D3N:1;
....................          unsigned int LC3G3D3T:1;
....................          unsigned int LC3G3D4N:1;
....................          unsigned int LC3G3D4T:1;
....................       };
.................... 
....................       struct {
....................          unsigned int D1N:1;
....................          unsigned int D1T:1;
....................          unsigned int D2N:1;
....................          unsigned int D2T:1;
....................          unsigned int D3N:1;
....................          unsigned int D3T:1;
....................          unsigned int D4N:1;
....................          unsigned int D4T:1;
....................       };
....................    };
.................... } CLC3GLS2;
.................... #byte CLC3GLS2 = 0xE2C
.................... 
.................... struct CLC3GLS3 {
....................    union {
....................       struct {
....................          unsigned int LC3G4D1N:1;
....................          unsigned int LC3G4D1T:1;
....................          unsigned int LC3G4D2N:1;
....................          unsigned int LC3G4D2T:1;
....................          unsigned int LC3G4D3N:1;
....................          unsigned int LC3G4D3T:1;
....................          unsigned int LC3G4D4N:1;
....................          unsigned int LC3G4D4T:1;
....................       };
.................... 
....................       struct {
....................          unsigned int G4D1N:1;
....................          unsigned int G4D1T:1;
....................          unsigned int G4D2N:1;
....................          unsigned int G4D2T:1;
....................          unsigned int G4D3N:1;
....................          unsigned int G4D3T:1;
....................          unsigned int G4D4N:1;
....................          unsigned int G4D4T:1;
....................       };
....................    };
.................... } CLC3GLS3;
.................... #byte CLC3GLS3 = 0xE2D
.................... 
.................... struct CLC4CON {
....................    union {
....................       struct {
....................          unsigned int LC4MODE:3;
....................          unsigned int LC4INTN:1;
....................          unsigned int LC4INTP:1;
....................          unsigned int LC4OUT:1;
....................          unsigned int LC4OE:1;
....................          unsigned int LC4EN:1;
....................       };
.................... 
....................       struct {
....................          unsigned int MODE:3;
....................          unsigned int INTN:1;
....................          unsigned int INTP:1;
....................          unsigned int OUT:1;
....................          unsigned int OE:1;
....................          unsigned int EN:1;
....................       };
....................    };
.................... } CLC4CON;
.................... #byte CLC4CON = 0xE2E
.................... 
.................... struct CLC4POL {
....................    union {
....................       struct {
....................          unsigned int LC4G1POL:1;
....................          unsigned int LC4G2POL:1;
....................          unsigned int LC4G3POL:1;
....................          unsigned int LC4G4POL:1;
....................          unsigned int :3;
....................          unsigned int LC4POL:1;
....................       };
.................... 
....................       struct {
....................          unsigned int G1POL:1;
....................          unsigned int G2POL:1;
....................          unsigned int G3POL:1;
....................          unsigned int G4POL:1;
....................          unsigned int :3;
....................          unsigned int POL:1;
....................       };
....................    };
.................... } CLC4POL;
.................... #byte CLC4POL = 0xE2F
.................... 
.................... struct CLC4SEL0 {
....................    union {
....................       struct {
....................          unsigned int LC4D1S:8;
....................       };
.................... 
....................       struct {
....................          unsigned int D1S:8;
....................       };
....................    };
.................... } CLC4SEL0;
.................... #byte CLC4SEL0 = 0xE30
.................... 
.................... struct CLC4SEL1 {
....................    union {
....................       struct {
....................          unsigned int LC4D2S:8;
....................       };
.................... 
....................       struct {
....................          unsigned int D2S:8;
....................       };
....................    };
.................... } CLC4SEL1;
.................... #byte CLC4SEL1 = 0xE31
.................... 
.................... struct CLC4SEL2 {
....................    union {
....................       struct {
....................          unsigned int LC4D3S:8;
....................       };
.................... 
....................       struct {
....................          unsigned int D3S:8;
....................       };
....................    };
.................... } CLC4SEL2;
.................... #byte CLC4SEL2 = 0xE32
.................... 
.................... struct CLC4SEL3 {
....................    union {
....................       struct {
....................          unsigned int LC4D4S:8;
....................       };
.................... 
....................       struct {
....................          unsigned int D4S:8;
....................       };
....................    };
.................... } CLC4SEL3;
.................... #byte CLC4SEL3 = 0xE33
.................... 
.................... struct CLC4GLS0 {
....................    union {
....................       struct {
....................          unsigned int LC4G1D1N:1;
....................          unsigned int LC4G1D1T:1;
....................          unsigned int LC4G1D2N:1;
....................          unsigned int LC4G1D2T:1;
....................          unsigned int LC4G1D3N:1;
....................          unsigned int LC4G1D3T:1;
....................          unsigned int LC4G1D4N:1;
....................          unsigned int LC4G1D4T:1;
....................       };
.................... 
....................       struct {
....................          unsigned int D1N:1;
....................          unsigned int D1T:1;
....................          unsigned int D2N:1;
....................          unsigned int D2T:1;
....................          unsigned int D3N:1;
....................          unsigned int D3T:1;
....................          unsigned int D4N:1;
....................          unsigned int D4T:1;
....................       };
....................    };
.................... } CLC4GLS0;
.................... #byte CLC4GLS0 = 0xE34
.................... 
.................... struct CLC4GLS1 {
....................    union {
....................       struct {
....................          unsigned int LC4G2D1N:1;
....................          unsigned int LC4G2D1T:1;
....................          unsigned int LC4G2D2N:1;
....................          unsigned int LC4G2D2T:1;
....................          unsigned int LC4G2D3N:1;
....................          unsigned int LC4G2D3T:1;
....................          unsigned int LC4G2D4N:1;
....................          unsigned int LC4G2D4T:1;
....................       };
.................... 
....................       struct {
....................          unsigned int D1N:1;
....................          unsigned int D1T:1;
....................          unsigned int D2N:1;
....................          unsigned int D2T:1;
....................          unsigned int D3N:1;
....................          unsigned int D3T:1;
....................          unsigned int D4N:1;
....................          unsigned int D4T:1;
....................       };
....................    };
.................... } CLC4GLS1;
.................... #byte CLC4GLS1 = 0xE35
.................... 
.................... struct CLC4GLS2 {
....................    union {
....................       struct {
....................          unsigned int LC4G3D1N:1;
....................          unsigned int LC4G3D1T:1;
....................          unsigned int LC4G3D2N:1;
....................          unsigned int LC4G3D2T:1;
....................          unsigned int LC4G3D3N:1;
....................          unsigned int LC4G3D3T:1;
....................          unsigned int LC4G3D4N:1;
....................          unsigned int LC4G3D4T:1;
....................       };
.................... 
....................       struct {
....................          unsigned int D1N:1;
....................          unsigned int D1T:1;
....................          unsigned int D2N:1;
....................          unsigned int D2T:1;
....................          unsigned int D3N:1;
....................          unsigned int D3T:1;
....................          unsigned int D4N:1;
....................          unsigned int D4T:1;
....................       };
....................    };
.................... } CLC4GLS2;
.................... #byte CLC4GLS2 = 0xE36
.................... 
.................... struct CLC4GLS3 {
....................    union {
....................       struct {
....................          unsigned int LC4G4D1N:1;
....................          unsigned int LC4G4D1T:1;
....................          unsigned int LC4G4D2N:1;
....................          unsigned int LC4G4D2T:1;
....................          unsigned int LC4G4D3N:1;
....................          unsigned int LC4G4D3T:1;
....................          unsigned int LC4G4D4N:1;
....................          unsigned int LC4G4D4T:1;
....................       };
.................... 
....................       struct {
....................          unsigned int G4D1N:1;
....................          unsigned int G4D1T:1;
....................          unsigned int G4D2N:1;
....................          unsigned int G4D2T:1;
....................          unsigned int G4D3N:1;
....................          unsigned int G4D3T:1;
....................          unsigned int G4D4N:1;
....................          unsigned int G4D4T:1;
....................       };
....................    };
.................... } CLC4GLS3;
.................... #byte CLC4GLS3 = 0xE37
.................... 
.................... struct PPSLOCK {
....................    unsigned int PPSLOCKED:1;
.................... } PPSLOCK;
.................... #byte PPSLOCK = 0xE8F
.................... 
.................... #byte INTPPS = 0xE90
.................... 
.................... #byte T0CKIPPS = 0xE91
.................... 
.................... #byte T1CKIPPS = 0xE92
.................... 
.................... #byte T1GPPS = 0xE93
.................... 
.................... #byte T3CKIPPS = 0xE94
.................... 
.................... #byte T3GPPS = 0xE95
.................... 
.................... #byte T5CKIPPS = 0xE96
.................... 
.................... #byte T5GPPS = 0xE97
.................... 
.................... #byte CCP1PPS = 0xEA1
.................... 
.................... #byte CCP2PPS = 0xEA2
.................... 
.................... #byte CCP3PPS = 0xEA3
.................... 
.................... #byte CCP4PPS = 0xEA4
.................... 
.................... #byte SMT1WINPPS = 0xEA9
.................... 
.................... #byte SMT1SIGPPS = 0xEAA
.................... 
.................... #byte SMT2WINPPS = 0xEAB
.................... 
.................... #byte SMT2SIGPPS = 0xEAC
.................... 
.................... #byte CWG1PPS = 0xEB1
.................... 
.................... #byte CWG2PPS = 0xEB2
.................... 
.................... #byte CLCIN0PPS = 0xEBB
.................... 
.................... #byte CLCIN1PPS = 0xEBC
.................... 
.................... #byte CLCIN2PPS = 0xEBD
.................... 
.................... #byte CLCIN3PPS = 0xEBE
.................... 
.................... #byte ADCACTPPS = 0xEC3
.................... 
.................... #byte SSP1CLKPPS = 0xEC5
.................... 
.................... #byte SSP1DATPPS = 0xEC6
.................... 
.................... #byte SSP1SSPPS = 0xEC7
.................... 
.................... #byte SSP2CLKPPS = 0xEC8
.................... 
.................... #byte SSP2DATPPS = 0xEC9
.................... 
.................... #byte SSP2SSPPS = 0xECA
.................... 
.................... #byte RXPPS = 0xECB
.................... 
.................... #byte TXPPS = 0xECC
.................... 
.................... #byte RA0PPS = 0xF10
.................... 
.................... #byte RA1PPS = 0xF11
.................... 
.................... #byte RA2PPS = 0xF12
.................... 
.................... #byte RA3PPS = 0xF13
.................... 
.................... #byte RA4PPS = 0xF14
.................... 
.................... #byte RA5PPS = 0xF15
.................... 
.................... #byte RA6PPS = 0xF16
.................... 
.................... #byte RA7PPS = 0xF17
.................... 
.................... #byte RB0PPS = 0xF18
.................... 
.................... #byte RB1PPS = 0xF19
.................... 
.................... #byte RB2PPS = 0xF1A
.................... 
.................... #byte RB3PPS = 0xF1B
.................... 
.................... #byte RB4PPS = 0xF1C
.................... 
.................... #byte RB5PPS = 0xF1D
.................... 
.................... #byte RB6PPS = 0xF1E
.................... 
.................... #byte RB7PPS = 0xF1F
.................... 
.................... #byte RC0PPS = 0xF20
.................... 
.................... #byte RC2PPS = 0xF22
.................... 
.................... #byte RC3PPS = 0xF23
.................... 
.................... #byte RC4PPS = 0xF24
.................... 
.................... #byte RC5PPS = 0xF25
.................... 
.................... #byte RC6PPS = 0xF26
.................... 
.................... #byte RC7PPS = 0xF27
.................... 
.................... struct ANSELA {
....................    unsigned int ANSA:8;
.................... } ANSELA;
.................... #byte ANSELA = 0xF38
.................... 
.................... struct WPUA {
....................    unsigned int WPUA:8;
.................... } WPUA;
.................... #byte WPUA = 0xF39
.................... 
.................... struct ODCONA {
....................    unsigned int ODCA:8;
.................... } ODCONA;
.................... #byte ODCONA = 0xF3A
.................... 
.................... struct SLRCONA {
....................    unsigned int SLRA:8;
.................... } SLRCONA;
.................... #byte SLRCONA = 0xF3B
.................... 
.................... struct INLVLA {
....................    unsigned int INLVLA:8;
.................... } INLVLA;
.................... #byte INLVLA = 0xF3C
.................... 
.................... struct IOCAP {
....................    unsigned int IOCAP:8;
.................... } IOCAP;
.................... #byte IOCAP = 0xF3D
.................... 
.................... struct IOCAN {
....................    unsigned int IOCAN:8;
.................... } IOCAN;
.................... #byte IOCAN = 0xF3E
.................... 
.................... struct IOCAF {
....................    unsigned int IOCAF:8;
.................... } IOCAF;
.................... #byte IOCAF = 0xF3F
.................... 
.................... struct CCDNA {
....................    unsigned int CCDNA:8;
.................... } CCDNA;
.................... #byte CCDNA = 0xF40
.................... 
.................... struct CCDPA {
....................    unsigned int CCDPA:8;
.................... } CCDPA;
.................... #byte CCDPA = 0xF41
.................... 
.................... struct ANSELB {
....................    unsigned int ANSB:8;
.................... } ANSELB;
.................... #byte ANSELB = 0xF43
.................... 
.................... struct WPUB {
....................    unsigned int WPUB:8;
.................... } WPUB;
.................... #byte WPUB = 0xF44
.................... 
.................... struct ODCONB {
....................    unsigned int ODCB:8;
.................... } ODCONB;
.................... #byte ODCONB = 0xF45
.................... 
.................... struct SLRCONB {
....................    unsigned int SLRB:8;
.................... } SLRCONB;
.................... #byte SLRCONB = 0xF46
.................... 
.................... struct INLVLB {
....................    unsigned int INLVLB:8;
.................... } INLVLB;
.................... #byte INLVLB = 0xF47
.................... 
.................... struct IOCBP {
....................    unsigned int IOCBP:8;
.................... } IOCBP;
.................... #byte IOCBP = 0xF48
.................... 
.................... struct IOCBN {
....................    unsigned int IOCBN:8;
.................... } IOCBN;
.................... #byte IOCBN = 0xF49
.................... 
.................... struct IOCBF {
....................    unsigned int IOCBF:8;
.................... } IOCBF;
.................... #byte IOCBF = 0xF4A
.................... 
.................... struct CCDNB {
....................    unsigned int CCDNB:8;
.................... } CCDNB;
.................... #byte CCDNB = 0xF4B
.................... 
.................... struct CCDPB {
....................    unsigned int CCDPB:8;
.................... } CCDPB;
.................... #byte CCDPB = 0xF4C
.................... 
.................... struct ANSELC {
....................    unsigned int ANSC:8;
.................... } ANSELC;
.................... #byte ANSELC = 0xF4E
.................... 
.................... struct WPUC {
....................    unsigned int WPUC:8;
.................... } WPUC;
.................... #byte WPUC = 0xF4F
.................... 
.................... struct ODCONC {
....................    unsigned int ODCC:8;
.................... } ODCONC;
.................... #byte ODCONC = 0xF50
.................... 
.................... struct SLRCONC {
....................    unsigned int SLRC:8;
.................... } SLRCONC;
.................... #byte SLRCONC = 0xF51
.................... 
.................... struct INLVLC {
....................    unsigned int INLVLC:8;
.................... } INLVLC;
.................... #byte INLVLC = 0xF52
.................... 
.................... struct IOCCP {
....................    unsigned int IOCCP:8;
.................... } IOCCP;
.................... #byte IOCCP = 0xF53
.................... 
.................... struct IOCCN {
....................    unsigned int IOCCN:8;
.................... } IOCCN;
.................... #byte IOCCN = 0xF54
.................... 
.................... struct IOCCF {
....................    unsigned int IOCCF:8;
.................... } IOCCF;
.................... #byte IOCCF = 0xF55
.................... 
.................... struct CCDNC {
....................    unsigned int CCDNC:8;
.................... } CCDNC;
.................... #byte CCDNC = 0xF56
.................... 
.................... struct CCDPC {
....................    unsigned int CCDPC:8;
.................... } CCDPC;
.................... #byte CCDPC = 0xF57
.................... 
.................... struct WPUE {
....................    unsigned int :3;
....................    unsigned int WPUE3:1;
.................... } WPUE;
.................... #byte WPUE = 0xF65
.................... 
.................... struct INLVLE {
....................    unsigned int :3;
....................    unsigned int INLVLE3:1;
.................... } INLVLE;
.................... #byte INLVLE = 0xF68
.................... 
.................... struct IOCEP {
....................    unsigned int :3;
....................    unsigned int IOCEP3:1;
.................... } IOCEP;
.................... #byte IOCEP = 0xF69
.................... 
.................... struct IOCEN {
....................    unsigned int :3;
....................    unsigned int IOCEN3:1;
.................... } IOCEN;
.................... #byte IOCEN = 0xF6A
.................... 
.................... struct IOCEF {
....................    unsigned int :3;
....................    unsigned int IOCEF3:1;
.................... } IOCEF;
.................... #byte IOCEF = 0xF6B
.................... 
.................... struct STATUS_SHAD {
....................    unsigned int C_SHAD:1;
....................    unsigned int DC_SHAD:1;
....................    unsigned int Z_SHAD:1;
.................... } STATUS_SHAD;
.................... #byte STATUS_SHAD = 0xFE4
.................... 
.................... #byte WREG_SHAD = 0xFE5
.................... 
.................... #byte BSR_SHAD = 0xFE6
.................... 
.................... #byte PCLATH_SHAD = 0xFE7
.................... 
.................... #byte FSR0L_SHAD = 0xFE8
.................... 
.................... #byte FSR0H_SHAD = 0xFE9
.................... 
.................... #byte FSR1L_SHAD = 0xFEA
.................... 
.................... #byte FSR1H_SHAD = 0xFEB
.................... 
.................... #byte STKPTR = 0xFED
.................... 
.................... #word TOS = 0xFEE
.................... 
.................... 
.................... 
.................... //#fuses RSTOSC_HFINTRC
.................... #fuses RSTOSC_HFINTRC_32MHZ
.................... #fuses NOEXTOSC,NOCLKOUT,NOCKS,NOFCMEN
.................... #fuses MCLR,PUT,NOLPBOR,NOBROWNOUT,BORV24,NOZCDDIS,NOPPS1WAY,NOSTVREN,NODEBUG
.................... #fuses WDTSW,NOWDT,WDTWIN_100%,WDTCLK_LFINTRC
.................... #fuses NOWRT,NOSCANE,NOLVP, NOPROTECT,NOCPD
.................... 
.................... //#use delay(internal=4M)
.................... #use delay(clock=32MHz)
*
005C:  MOVLW  20
005D:  MOVWF  05
005E:  MOVLW  19
005F:  MOVWF  04
0060:  MOVF   00,W
0061:  BTFSC  03.2
0062:  GOTO   070
0063:  MOVLW  0A
0064:  MOVWF  78
0065:  CLRF   77
0066:  DECFSZ 77,F
0067:  GOTO   066
0068:  DECFSZ 78,F
0069:  GOTO   065
006A:  MOVLW  5F
006B:  MOVWF  77
006C:  DECFSZ 77,F
006D:  GOTO   06C
006E:  DECFSZ 00,F
006F:  GOTO   063
0070:  RETURN
*
0214:  MOVLW  02
0215:  SUBWF  36,F
0216:  BTFSS  03.0
0217:  GOTO   225
0218:  MOVLW  20
0219:  MOVWF  05
021A:  MOVLW  16
021B:  MOVWF  04
021C:  MOVF   00,W
021D:  BTFSC  03.2
021E:  GOTO   225
021F:  GOTO   223
0220:  GOTO   221
0221:  GOTO   222
0222:  NOP
0223:  DECFSZ 00,F
0224:  GOTO   220
0225:  RETURN
.................... #use rs232(baud=9600,parity=N,xmit=PIN_C0,rcv=PIN_C1,bits=8)
.................... #use i2c(master,slow,sda=PIN_C3,scl=PIN_C4)
*
0026:  MOVLW  08
0027:  MOVWF  78
0028:  MOVLW  09
0029:  MOVWF  77
002A:  DECFSZ 77,F
002B:  GOTO   02A
002C:  BCF    18.4
002D:  BCF    13.4
002E:  MOVLW  08
002F:  MOVWF  77
0030:  DECFSZ 77,F
0031:  GOTO   030
0032:  RLF    47,F
0033:  BCF    18.3
0034:  BTFSC  03.0
0035:  BSF    13.3
0036:  BTFSS  03.0
0037:  BCF    13.3
0038:  BSF    13.4
0039:  BTFSS  0E.4
003A:  GOTO   039
003B:  DECFSZ 78,F
003C:  GOTO   028
003D:  MOVLW  09
003E:  MOVWF  77
003F:  DECFSZ 77,F
0040:  GOTO   03F
0041:  BCF    18.4
0042:  BCF    13.4
0043:  NOP
0044:  BSF    13.3
0045:  MOVLW  08
0046:  MOVWF  77
0047:  DECFSZ 77,F
0048:  GOTO   047
0049:  MOVLW  08
004A:  MOVWF  77
004B:  DECFSZ 77,F
004C:  GOTO   04B
004D:  BSF    13.4
004E:  BTFSS  0E.4
004F:  GOTO   04E
0050:  CLRF   78
0051:  MOVLW  08
0052:  MOVWF  77
0053:  DECFSZ 77,F
0054:  GOTO   053
0055:  BTFSC  0E.3
0056:  BSF    78.0
0057:  BCF    18.4
0058:  BCF    13.4
0059:  BCF    18.3
005A:  BCF    13.3
005B:  RETURN
*
01E1:  MOVLW  08
01E2:  MOVWF  2C
01E3:  MOVF   77,W
01E4:  MOVWF  2D
01E5:  BSF    13.3
01E6:  MOVLW  08
01E7:  MOVWF  77
01E8:  DECFSZ 77,F
01E9:  GOTO   1E8
01EA:  BSF    13.4
01EB:  BTFSS  0E.4
01EC:  GOTO   1EB
01ED:  BTFSC  0E.3
01EE:  BSF    03.0
01EF:  BTFSS  0E.3
01F0:  BCF    03.0
01F1:  RLF    78,F
01F2:  MOVLW  09
01F3:  MOVWF  77
01F4:  DECFSZ 77,F
01F5:  GOTO   1F4
01F6:  BCF    13.4
01F7:  BCF    18.4
01F8:  DECFSZ 2C,F
01F9:  GOTO   1E5
01FA:  BSF    13.3
01FB:  MOVLW  08
01FC:  MOVWF  77
01FD:  DECFSZ 77,F
01FE:  GOTO   1FD
01FF:  BCF    18.3
0200:  MOVF   2D,W
0201:  BTFSS  03.2
0202:  BCF    13.3
0203:  NOP
0204:  BSF    13.4
0205:  BTFSS  0E.4
0206:  GOTO   205
0207:  MOVLW  09
0208:  MOVWF  77
0209:  DECFSZ 77,F
020A:  GOTO   209
020B:  BCF    18.4
020C:  BCF    13.4
020D:  MOVLW  08
020E:  MOVWF  77
020F:  DECFSZ 77,F
0210:  GOTO   20F
0211:  BCF    18.3
0212:  BCF    13.3
0213:  RETURN
.................... 
.................... 
.................... #define addrr     0b01001111
.................... #define addrw     0b01001110
.................... #define PCF       112         // Puede ser 112  64 (PCF8574T=64, PCF8574A=112, PCF8574=64)
.................... #include "LCD_i2c.c"
.................... /*
....................    Autor: Freddy Quispe Tello.
....................    Fecha: 25-07-2015
.................... */
.................... /*
.................... //directivas 
.................... #define PCF_SDA  PIN_C2
.................... #define PCF_SCL  PIN_C1
.................... #use i2c(master, sda=PCF_SDA, scl=PCF_SCL)
.................... #define PCF_ID   7
.................... #define PCF      64  // Puede ser 112  64 (PCF8574T=64, PCF8574A=112, PCF8574=64)
.................... #define blacking  P3
.................... #define LCD_RS    P0
.................... #define LCD_RW    P1 
.................... #define LCD_E     P2
.................... #define LCD_DB4   P4
.................... #define LCD_DB5   P5
.................... #define LCD_DB6   P6
.................... #define LCD_DB7   P7
.................... ///////////////
.................... 
.................... ......................................
.................... *******************************************************************************
.................... *******************************************************************************
.................... Const char Letra1[8]={0b11011,0b11011,0b00000,0b11111,0b10001,0b10001,0b01110,0b00000};
....................       lcd_init();   // Para iniciar el LCD, se declara antes de su utilizacion
....................       lcd_gotoxy(columna, fila) // lcd_gotoxy(1,1); primera posicion de la fila 1, lcd_gotoxy(2,1) segunda posicion de la fila 2
....................       lcd_putc("Mensaje");
....................       Claer_LCD();         // Borra la LCD
....................       ////////////////////////////CGRAM
....................       CGRAM_x(n);         // Donde n es la posicion en donde se escribiran los caracteres, va de 0 a 7
....................       for(i=0;i<=7 ;i++) lcd_send_byte(1,Letra1[i]);  // E una vez definido la funcion, envia lo 8bytes,
....................        CGRAM(0); // Muestra el caracter especial almacenado en la posicion 0;*/
....................        
.................... //Solo modificar el PCF_ID y EL PCF segun sea necesario
.................... #define PCF_ID    7   //direccion i2c
.................... //#define PCF       112  // Puede ser 112  64 (PCF8574T=64, PCF8574A=112, PCF8574=64)
.................... 
.................... #define blacking  8
.................... #define LCD_RS    1
.................... #define LCD_RW    2 
.................... #define LCD_E     4
.................... #define LCD_DB4   16
.................... #define LCD_DB5   32
.................... #define LCD_DB6   64
.................... #define LCD_DB7   128
.................... 
.................... /*#define blacking  P3
.................... #define LCD_RS    P0
.................... #define LCD_RW    P1 
.................... #define LCD_E     P2
.................... #define LCD_DB4   P4
.................... #define LCD_DB5   P5
.................... #define LCD_DB6   P6
.................... #define LCD_DB7   P7*/
.................... 
.................... //A partir de aqui no modificar nada
.................... /*#define P0   1
.................... #define P1   2
.................... #define P2   4
.................... #define P3   8
.................... #define P4   16
.................... #define P5   32
.................... #define P6   64
.................... #define P7   128*/
.................... 
.................... #define LCD_LINE_1_ADDRESS 0x00 
.................... #define LCD_LINE_2_ADDRESS 0x40 
.................... #define LCD_LINE_3_ADDRESS 0x14 
.................... #define LCD_LINE_4_ADDRESS 0x54 
.................... 
....................  #define LCD_LINE_LENGTH 20
.................... unsigned int8 g_LcdX, g_LcdY;
.................... 
.................... #define lcd_type 2   // 0=5x7, 1=5x10, 2=2 lines(or more) 
.................... int8 const LCD_INIT_STRING[4] = 
.................... { 
....................  0x20 | (lcd_type << 2),  // Set mode: 4-bit, 2+ lines, 5x8 dots 
....................  0xc,                     // Display on 
....................  1,                       // Clear display 
....................  6                        // Increment cursor 
....................  }; 
.................... 
.................... void Write_PCF(char dato){
....................   
....................    i2c_start();
*
0071:  BSF    13.3
0072:  MOVLW  09
0073:  MOVWF  77
0074:  DECFSZ 77,F
0075:  GOTO   074
0076:  BSF    13.4
0077:  MOVLW  08
0078:  MOVWF  77
0079:  DECFSZ 77,F
007A:  GOTO   079
007B:  BCF    18.3
007C:  BCF    13.3
007D:  MOVLW  09
007E:  MOVWF  77
007F:  DECFSZ 77,F
0080:  GOTO   07F
0081:  BCF    18.4
0082:  BCF    13.4
....................    i2c_write(PCF|(PCF_ID<<1));
0083:  MOVLW  7E
0084:  MOVWF  47
0085:  CALL   026
....................    i2c_write(dato|blacking );
0086:  MOVF   45,W
0087:  IORLW  08
0088:  MOVWF  46
0089:  MOVWF  47
008A:  CALL   026
....................    i2c_stop();
008B:  BCF    13.3
008C:  NOP
008D:  BSF    13.4
008E:  BTFSS  0E.4
008F:  GOTO   08E
0090:  MOVLW  09
0091:  MOVWF  77
0092:  DECFSZ 77,F
0093:  GOTO   092
0094:  GOTO   095
0095:  NOP
0096:  BSF    13.3
0097:  MOVLW  09
0098:  MOVWF  77
0099:  DECFSZ 77,F
009A:  GOTO   099
009B:  RETURN
....................       
.................... }
.................... void Send_D7_D4(int8 address,int8 nibble)
009C:  CLRF   43
.................... {  
....................    char datos=0;
.................... 
....................    if((nibble & 1)==1) datos= datos|LCD_DB4; else datos = datos&~LCD_DB4;
009D:  MOVF   42,W
009E:  ANDLW  01
009F:  SUBLW  01
00A0:  BTFSS  03.2
00A1:  GOTO   0A4
00A2:  BSF    43.4
00A3:  GOTO   0A5
00A4:  BCF    43.4
....................    if((nibble & 2)==2) datos= datos|LCD_DB5; else datos = datos&~LCD_DB5;
00A5:  MOVF   42,W
00A6:  ANDLW  02
00A7:  SUBLW  02
00A8:  BTFSS  03.2
00A9:  GOTO   0AC
00AA:  BSF    43.5
00AB:  GOTO   0AD
00AC:  BCF    43.5
....................    if((nibble & 4)==4) datos= datos|LCD_DB6; else datos = datos&~LCD_DB6;
00AD:  MOVF   42,W
00AE:  ANDLW  04
00AF:  SUBLW  04
00B0:  BTFSS  03.2
00B1:  GOTO   0B4
00B2:  BSF    43.6
00B3:  GOTO   0B5
00B4:  BCF    43.6
....................    if((nibble & 8)==8) datos= datos|LCD_DB7; else datos = datos&~LCD_DB7;
00B5:  MOVF   42,W
00B6:  ANDLW  08
00B7:  SUBLW  08
00B8:  BTFSS  03.2
00B9:  GOTO   0BC
00BA:  BSF    43.7
00BB:  GOTO   0BD
00BC:  BCF    43.7
....................       delay_us(60);
00BD:  MOVLW  9F
00BE:  MOVWF  77
00BF:  DECFSZ 77,F
00C0:  GOTO   0BF
00C1:  GOTO   0C2
....................    if(address)
00C2:  MOVF   41,F
00C3:  BTFSC  03.2
00C4:  GOTO   0C7
....................       datos= datos |LCD_RS;   
00C5:  BSF    43.0
00C6:  GOTO   0C8
....................    else
....................      datos = datos &~LCD_RS; 
00C7:  BCF    43.0
....................       
.................... 
....................    Write_PCF( datos | LCD_E);
00C8:  MOVF   43,W
00C9:  IORLW  04
00CA:  MOVWF  44
00CB:  MOVWF  45
00CC:  CALL   071
....................    delay_us(2);
00CD:  MOVLW  05
00CE:  MOVWF  77
00CF:  DECFSZ 77,F
00D0:  GOTO   0CF
....................    Write_PCF( datos & ~LCD_E);
00D1:  MOVF   43,W
00D2:  ANDLW  FB
00D3:  MOVWF  44
00D4:  MOVWF  45
00D5:  CALL   071
00D6:  RETURN
.................... }
.................... 
.................... void lcd_send_byte(int8 address, int8 n)
.................... {
....................    Send_D7_D4(address,n >> 4);
00D7:  SWAPF  3F,W
00D8:  MOVWF  40
00D9:  MOVLW  0F
00DA:  ANDWF  40,F
00DB:  MOVF   3E,W
00DC:  MOVWF  41
00DD:  MOVF   40,W
00DE:  MOVWF  42
00DF:  CALL   09C
....................    Send_D7_D4(address,n & 0xf);
00E0:  MOVF   3F,W
00E1:  ANDLW  0F
00E2:  MOVWF  40
00E3:  MOVF   3E,W
00E4:  MOVWF  41
00E5:  MOVF   40,W
00E6:  MOVWF  42
00E7:  CALL   09C
00E8:  RETURN
.................... }
.................... 
.................... void lcd_init(void){
....................    int8 i;
....................    i2c_start();
00E9:  BSF    13.3
00EA:  MOVLW  09
00EB:  MOVWF  77
00EC:  DECFSZ 77,F
00ED:  GOTO   0EC
00EE:  BSF    13.4
00EF:  MOVLW  08
00F0:  MOVWF  77
00F1:  DECFSZ 77,F
00F2:  GOTO   0F1
00F3:  BCF    18.3
00F4:  BCF    13.3
00F5:  MOVLW  09
00F6:  MOVWF  77
00F7:  DECFSZ 77,F
00F8:  GOTO   0F7
00F9:  BCF    18.4
00FA:  BCF    13.4
....................    i2c_write(PCF|(PCF_ID<<1));
00FB:  MOVLW  7E
00FC:  MOVWF  47
00FD:  CALL   026
....................    i2c_write(0x00);
00FE:  CLRF   47
00FF:  CALL   026
....................    i2c_stop();
0100:  BCF    13.3
0101:  NOP
0102:  BSF    13.4
0103:  BTFSS  0E.4
0104:  GOTO   103
0105:  MOVLW  09
0106:  MOVWF  77
0107:  DECFSZ 77,F
0108:  GOTO   107
0109:  GOTO   10A
010A:  NOP
010B:  BSF    13.3
010C:  MOVLW  09
010D:  MOVWF  77
010E:  DECFSZ 77,F
010F:  GOTO   10E
....................    delay_ms(35);
0110:  MOVLW  23
0111:  MOVWF  39
0112:  CALL   05C
.................... 
....................    for(i=0 ;i < 3; i++){
0113:  CLRF   2B
0114:  MOVF   2B,W
0115:  SUBLW  02
0116:  BTFSS  03.0
0117:  GOTO   121
....................       Send_D7_D4(0,0x03);
0118:  CLRF   41
0119:  MOVLW  03
011A:  MOVWF  42
011B:  CALL   09C
....................       delay_ms(5);
011C:  MOVLW  05
011D:  MOVWF  39
011E:  CALL   05C
011F:  INCF   2B,F
0120:  GOTO   114
....................    }
....................     Send_D7_D4(0,0x02);
0121:  CLRF   41
0122:  MOVLW  02
0123:  MOVWF  42
0124:  CALL   09C
....................     
....................     /* lcd_send_byte(0, 0x28);
....................     delay_ms(5);
....................     lcd_send_byte(0, 0x08);
....................     delay_ms(5);
....................     lcd_send_byte(0, 0x01);
....................     delay_ms(5);
....................     lcd_send_byte(0, 0x06);
....................     delay_ms(5);
....................     lcd_send_byte(0, 0x0C);
....................     */
....................     
....................    for(i=0; i < sizeof(LCD_INIT_STRING); i++) 
0125:  CLRF   2B
0126:  MOVF   2B,W
0127:  SUBLW  03
0128:  BTFSS  03.0
0129:  GOTO   136
....................    {
....................       lcd_send_byte(0, LCD_INIT_STRING[i]); 
012A:  MOVF   2B,W
012B:  CALL   003
012C:  MOVWF  2C
012D:  CLRF   3E
012E:  MOVF   2C,W
012F:  MOVWF  3F
0130:  CALL   0D7
....................       delay_ms(5);
0131:  MOVLW  05
0132:  MOVWF  39
0133:  CALL   05C
0134:  INCF   2B,F
0135:  GOTO   126
....................    } 
....................    g_LcdX = 0;
0136:  CLRF   20
....................    g_LcdY = 0;
0137:  CLRF   21
0138:  MOVLP  00
0139:  GOTO   644 (RETURN)
.................... }
.................... 
.................... void lcd_gotoxy(int8 x, int8 y)
.................... {
....................    int8 address;
....................    
....................    switch(y) 
*
0156:  MOVF   3B,W
0157:  XORLW  01
0158:  BTFSC  03.2
0159:  GOTO   164
015A:  XORLW  03
015B:  BTFSC  03.2
015C:  GOTO   166
015D:  XORLW  01
015E:  BTFSC  03.2
015F:  GOTO   169
0160:  XORLW  07
0161:  BTFSC  03.2
0162:  GOTO   16C
0163:  GOTO   16F
....................    { 
....................       case 1: 
....................          address = LCD_LINE_1_ADDRESS; 
0164:  CLRF   3C
....................          break; 
0165:  GOTO   170
....................       case 2: 
....................          address = LCD_LINE_2_ADDRESS; 
0166:  MOVLW  40
0167:  MOVWF  3C
....................          break; 
0168:  GOTO   170
....................       case 3: 
....................          address = LCD_LINE_3_ADDRESS; 
0169:  MOVLW  14
016A:  MOVWF  3C
....................          break; 
016B:  GOTO   170
....................       case 4: 
....................          address = LCD_LINE_4_ADDRESS; 
016C:  MOVLW  54
016D:  MOVWF  3C
....................          break; 
016E:  GOTO   170
....................       default: 
....................          address = LCD_LINE_1_ADDRESS; 
016F:  CLRF   3C
....................          break; 
....................    } 
....................    address += x-1;
0170:  MOVLW  01
0171:  SUBWF  3A,W
0172:  ADDWF  3C,F
....................    lcd_send_byte(0, 0x80 | address);
0173:  MOVF   3C,W
0174:  IORLW  80
0175:  MOVWF  3D
0176:  CLRF   3E
0177:  MOVF   3D,W
0178:  MOVWF  3F
0179:  CALL   0D7
....................    
....................    g_LcdX = x - 1;
017A:  MOVLW  01
017B:  SUBWF  3A,W
017C:  MOVWF  20
....................    g_LcdY = y - 1;
017D:  MOVLW  01
017E:  SUBWF  3B,W
017F:  MOVWF  21
.................... }
.................... 
.................... void lcd_putc(unsigned char c){
....................       switch(c)
*
013A:  MOVF   38,W
013B:  XORLW  0C
013C:  BTFSC  03.2
013D:  GOTO   142
013E:  XORLW  06
013F:  BTFSC  03.2
0140:  GOTO   14F
0141:  GOTO   181
....................       {
....................          case '\f':
....................             lcd_send_byte(0,1);
0142:  CLRF   3E
0143:  MOVLW  01
0144:  MOVWF  3F
0145:  CALL   0D7
....................             delay_ms(2);
0146:  MOVLW  02
0147:  MOVWF  39
0148:  CALL   05C
....................             g_LcdX = 0;
0149:  CLRF   20
....................             g_LcdY = 0;
014A:  CLRF   21
....................             delay_ms(2); 
014B:  MOVLW  02
014C:  MOVWF  39
014D:  CALL   05C
....................             break;
014E:  GOTO   186
....................          case '\n':
....................             lcd_gotoxy(1, g_LcdY+2);
014F:  MOVLW  02
0150:  ADDWF  21,W
0151:  MOVWF  39
0152:  MOVLW  01
0153:  MOVWF  3A
0154:  MOVF   39,W
0155:  MOVWF  3B
....................             break;
*
0180:  GOTO   186
....................          default:
....................             lcd_send_byte(1,c);
0181:  MOVLW  01
0182:  MOVWF  3E
0183:  MOVF   38,W
0184:  MOVWF  3F
0185:  CALL   0D7
....................             break;
....................       }
0186:  RETURN
.................... }
.................... 
.................... void lcd_putchar(unsigned char *dato){
....................    while (*dato){
....................       
....................       switch(*dato)
....................       {
....................          case '\f':
....................             lcd_send_byte(0,1);
....................             delay_ms(2);
....................             g_LcdX = 0;
....................             g_LcdY = 0;
....................             delay_ms(2); 
....................             break;
....................          case '\n':
....................             lcd_gotoxy(1, g_LcdY+2);
....................             break;
....................          default:
....................             lcd_send_byte(1,*dato);
....................             break;
....................       }
....................       
....................       //lcd_send_byte(1,*dato);    // Envio el dato al LCD
....................       dato++;             // Incrementa el buffer de dato
....................     }
.................... }
.................... 
.................... void Clear_LCD(){
....................      lcd_send_byte(0,1);
....................      delay_ms(2); 
.................... }
.................... void CGRAM(int8 n){
....................    lcd_send_byte(1,n);
.................... }
.................... void CGRAM_x(int p){
.................... lcd_send_byte(0,0x40+p*8);
*
01D2:  RLF    2B,W
01D3:  MOVWF  77
01D4:  RLF    77,F
01D5:  RLF    77,F
01D6:  MOVLW  F8
01D7:  ANDWF  77,F
01D8:  MOVF   77,W
01D9:  ADDLW  40
01DA:  MOVWF  2C
01DB:  CLRF   3E
01DC:  MOVF   2C,W
01DD:  MOVWF  3F
01DE:  CALL   0D7
01DF:  MOVLP  00
01E0:  GOTO   64E (RETURN)
.................... }
.................... 
.................... 
.................... #define ONE_WIRE_PIN PIN_B1
.................... #include "DS18b20yo.c"
.................... //#define ONE_WIRE_PIN PIN_A3//definir pin a usar en el main
....................                            //antes del ds1820.c
.................... 
.................... void onewire_reset();
.................... void onewire_write(int8 data);
.................... int onewire_read();
.................... float ds1820_read();
.................... 
.................... void onewire_reset() { 
....................     output_low(ONE_WIRE_PIN);       // pull the bus low for reset 
*
0226:  BCF    12.1
0227:  BCF    17.1
....................     delay_us(500); 
0228:  MOVLW  02
0229:  MOVWF  34
022A:  MOVLW  FA
022B:  MOVWF  36
022C:  CALL   214
022D:  DECFSZ 34,F
022E:  GOTO   22A
....................     output_float(ONE_WIRE_PIN);     // float the bus high 
022F:  BSF    12.1
....................     delay_us(500);                  // wait-out remaining initialisation window 
0230:  MOVLW  02
0231:  MOVWF  34
0232:  MOVLW  FA
0233:  MOVWF  36
0234:  CALL   214
0235:  DECFSZ 34,F
0236:  GOTO   232
....................     output_float(ONE_WIRE_PIN); 
0237:  BSF    12.1
0238:  RETURN
.................... } 
.................... 
.................... void onewire_write(int8 data) { 
....................     int8 count; 
....................     for(count = 0; count < 8; ++count) { 
0239:  CLRF   35
023A:  MOVF   35,W
023B:  SUBLW  07
023C:  BTFSS  03.0
023D:  GOTO   257
....................         output_low(ONE_WIRE_PIN); 
023E:  BCF    12.1
023F:  BCF    17.1
....................         delay_us(2);                // pull 1-wire low to initiate write time-slot. 
0240:  MOVLW  05
0241:  MOVWF  77
0242:  DECFSZ 77,F
0243:  GOTO   242
....................         output_bit(ONE_WIRE_PIN, shift_right(&data, 1, 0)); // set output bit on 1-wire 
0244:  LSRF   34,F
0245:  BTFSC  03.0
0246:  GOTO   249
0247:  BCF    17.1
0248:  GOTO   24A
0249:  BSF    17.1
024A:  BCF    12.1
....................         delay_us(60);               // wait until end of write slot. 
024B:  MOVLW  9F
024C:  MOVWF  77
024D:  DECFSZ 77,F
024E:  GOTO   24D
024F:  GOTO   250
....................         output_float(ONE_WIRE_PIN); // set 1-wire high again, 
0250:  BSF    12.1
....................         delay_us(2);                // for more than 1us minimum. 
0251:  MOVLW  05
0252:  MOVWF  77
0253:  DECFSZ 77,F
0254:  GOTO   253
0255:  INCF   35,F
0256:  GOTO   23A
....................     } 
0257:  RETURN
.................... } 
.................... 
.................... int onewire_read() { 
....................     int count, data; 
....................     for(count = 0; count < 8; ++count) { 
0258:  CLRF   34
0259:  MOVF   34,W
025A:  SUBLW  07
025B:  BTFSS  03.0
025C:  GOTO   274
....................         output_low(ONE_WIRE_PIN); 
025D:  BCF    12.1
025E:  BCF    17.1
....................         delay_us(2);                // pull 1-wire low to initiate read time-slot. 
025F:  MOVLW  05
0260:  MOVWF  77
0261:  DECFSZ 77,F
0262:  GOTO   261
....................         output_float(ONE_WIRE_PIN); // now let 1-wire float high, 
0263:  BSF    12.1
....................         delay_us(8);                // let device state stabilise, 
0264:  MOVLW  15
0265:  MOVWF  77
0266:  DECFSZ 77,F
0267:  GOTO   266
....................         shift_right(&data, 1, input(ONE_WIRE_PIN)); // and load result. 
0268:  BSF    12.1
0269:  BTFSC  0D.1
026A:  GOTO   26D
026B:  BCF    03.0
026C:  GOTO   26E
026D:  BSF    03.0
026E:  RRF    35,F
....................         delay_us(120);              // wait until end of read slot. 
026F:  MOVLW  78
0270:  MOVWF  36
0271:  CALL   214
0272:  INCF   34,F
0273:  GOTO   259
....................     } 
....................     return data; 
0274:  MOVF   35,W
0275:  MOVWF  78
0276:  RETURN
.................... } 
.................... 
.................... float ds18b20_read() { 
0277:  CLRF   2B
....................     int8 busy=0, temp1, temp2; 
....................     signed int16 temp3; 
....................     float result;  
....................     onewire_reset(); 
0278:  CALL   226
....................     onewire_write(0xCC);            //Skip ROM, address all devices 
0279:  MOVLW  CC
027A:  MOVWF  34
027B:  CALL   239
....................     onewire_write(0x44);            //Start temperature conversion 
027C:  MOVLW  44
027D:  MOVWF  34
027E:  CALL   239
....................     while(busy == 0)                //Wait while busy (bus is low) 
027F:  MOVF   2B,F
0280:  BTFSS  03.2
0281:  GOTO   286
....................     busy = onewire_read(); 
0282:  CALL   258
0283:  MOVF   78,W
0284:  MOVWF  2B
0285:  GOTO   27F
....................     onewire_reset(); 
0286:  CALL   226
....................     onewire_write(0xCC);            //Skip ROM, address all devices 
0287:  MOVLW  CC
0288:  MOVWF  34
0289:  CALL   239
....................     onewire_write(0xBE);            //Read scratchpad 
028A:  MOVLW  BE
028B:  MOVWF  34
028C:  CALL   239
....................     temp1 = onewire_read(); 
028D:  CALL   258
028E:  MOVF   78,W
028F:  MOVWF  2C
....................     temp2 = onewire_read(); 
0290:  CALL   258
0291:  MOVF   78,W
0292:  MOVWF  2D
....................     temp3 = make16(temp2, temp1);  
0293:  MOVF   2D,W
0294:  MOVWF  2F
0295:  MOVF   2C,W
0296:  MOVWF  2E
....................     result = (float) temp3 / 16.0;    //Calculation for DS18B20 
0297:  MOVF   2F,W
0298:  MOVWF  35
0299:  MOVF   2E,W
029A:  MOVWF  34
*
02BF:  MOVF   7A,W
02C0:  MOVWF  37
02C1:  MOVF   79,W
02C2:  MOVWF  36
02C3:  MOVF   78,W
02C4:  MOVWF  35
02C5:  MOVF   77,W
02C6:  MOVWF  34
02C7:  MOVF   37,W
02C8:  MOVWF  3B
02C9:  MOVF   36,W
02CA:  MOVWF  3A
02CB:  MOVF   35,W
02CC:  MOVWF  39
02CD:  MOVF   34,W
02CE:  MOVWF  38
02CF:  CLRF   3F
02D0:  CLRF   3E
02D1:  CLRF   3D
02D2:  MOVLW  83
02D3:  MOVWF  3C
*
039D:  MOVF   7A,W
039E:  MOVWF  33
039F:  MOVF   79,W
03A0:  MOVWF  32
03A1:  MOVF   78,W
03A2:  MOVWF  31
03A3:  MOVF   77,W
03A4:  MOVWF  30
....................     //delay_ms(200); 
....................     return(result);  
03A5:  MOVF   30,W
03A6:  MOVWF  77
03A7:  MOVF   31,W
03A8:  MOVWF  78
03A9:  MOVF   32,W
03AA:  MOVWF  79
03AB:  MOVF   33,W
03AC:  MOVWF  7A
03AD:  MOVLP  00
03AE:  GOTO   6F4 (RETURN)
.................... }
.................... 
.................... 
.................... const char Letra1[8]= {0b00000,0b11011,0b11011,0b00000,
....................                        0b11111,0b11111,0b01110,0b00000};
....................                        
.................... void main(){
*
060D:  BCF    13.0
060E:  BSF    18.0
060F:  CLRF   23
0610:  CLRF   22
0611:  MOVLB  1E
0612:  CLRF   38
0613:  CLRF   43
0614:  CLRF   4E
0615:  MOVLB  13
0616:  CLRF   11
0617:  CLRF   12
0618:  CLRF   13
0619:  CLRF   10
061A:  CLRF   15
061B:  CLRF   16
061C:  CLRF   17
061D:  CLRF   14
....................    float temp;
....................    int8  high_byte;
....................    unsigned int8 low_byte;
....................    setup_adc(NO_ANALOGS);
061E:  MOVLW  08
061F:  MOVLB  01
0620:  MOVWF  15
0621:  CLRF   16
0622:  CLRF   18
0623:  MOVLW  FF
0624:  MOVWF  1D
0625:  MOVLB  02
0626:  CLRF   0D
0627:  MOVLW  80
0628:  MOVLB  01
0629:  MOVWF  13
....................    setup_adc_ports(NO_ANALOGS);
062A:  MOVLW  00
062B:  MOVWF  1A
062C:  MOVLB  1E
062D:  MOVWF  38
062E:  MOVWF  43
062F:  MOVWF  4E
....................    setup_comparator(NC_NC_NC_NC);
0630:  MOVLB  13
0631:  CLRF   11
0632:  MOVLW  07
0633:  MOVWF  12
0634:  MOVWF  13
0635:  CLRF   10
0636:  CLRF   15
0637:  MOVWF  16
0638:  MOVWF  17
0639:  CLRF   14
.................... //!   setup_adc(ADC_LEGACY_MODE|ADC_CLOCK_DIV_2|ADC_ADRES_TO_ADPREV_AT_START );
.................... //!   setup_adc_ports(sAN4|VSS_VDD);
.................... 
....................    //setup_oscillator(OSC_HFINTRC_32MHZ|OSC_CLK_DIV_BY_1);
....................    
....................    //set_tris_a(0x00);       ///0 es para salida,  1, es para copnfigurar entrada
....................    //TRISA.TRISA0 = 1;
....................    set_tris_a(0b11110000);
063A:  MOVLW  F0
063B:  MOVLB  00
063C:  MOVWF  11
....................    set_tris_b(0x00);    //puerto b como salida
063D:  MOVLW  00
063E:  MOVWF  12
....................    output_b(0);
063F:  CLRF   12
0640:  CLRF   17
....................    output_a(0);
0641:  CLRF   11
0642:  CLRF   16
....................    
....................    lcd_init();
0643:  GOTO   0E9
....................    lcd_putc("\fHola 3\nsaludos");
0644:  MOVLW  11
0645:  MOVLB  10
0646:  MOVWF  1A
0647:  MOVLW  00
0648:  MOVWF  1B
0649:  MOVLB  00
064A:  GOTO   187
....................    CGRAM_x(5);
064B:  MOVLW  05
064C:  MOVWF  2B
064D:  GOTO   1D2
....................    for(int i=0;i<=7 ;i++) lcd_send_byte(1,Letra1[i]);
064E:  CLRF   2A
064F:  MOVF   2A,W
0650:  SUBLW  07
0651:  BTFSS  03.0
0652:  GOTO   65D
0653:  MOVF   2A,W
0654:  CALL   008
0655:  MOVWF  2B
0656:  MOVLW  01
0657:  MOVWF  3E
0658:  MOVF   2B,W
0659:  MOVWF  3F
065A:  CALL   0D7
065B:  INCF   2A,F
065C:  GOTO   64F
....................    delay_ms(1000);
065D:  MOVLW  04
065E:  MOVWF  2B
065F:  MOVLW  FA
0660:  MOVWF  39
0661:  CALL   05C
0662:  DECFSZ 2B,F
0663:  GOTO   65F
....................    
....................    while(TRUE){
....................       /*LATA.LATA0 = 1;
....................       delay_ms(500);
....................       LATA = 0;
....................       delay_ms(500);*/
....................       i2c_start(); 
0664:  BSF    13.3
0665:  MOVLW  09
0666:  MOVWF  77
0667:  DECFSZ 77,F
0668:  GOTO   667
0669:  BSF    13.4
066A:  MOVLW  08
066B:  MOVWF  77
066C:  DECFSZ 77,F
066D:  GOTO   66C
066E:  BCF    18.3
066F:  BCF    13.3
0670:  MOVLW  09
0671:  MOVWF  77
0672:  DECFSZ 77,F
0673:  GOTO   672
0674:  BCF    18.4
0675:  BCF    13.4
....................       i2c_write(0b01110000);
0676:  MOVLW  70
0677:  MOVWF  47
0678:  CALL   026
....................       I2C_write(0);
0679:  CLRF   47
067A:  CALL   026
....................       I2C_start();
067B:  BSF    13.3
067C:  MOVLW  09
067D:  MOVWF  77
067E:  DECFSZ 77,F
067F:  GOTO   67E
0680:  BSF    13.4
0681:  MOVLW  08
0682:  MOVWF  77
0683:  DECFSZ 77,F
0684:  GOTO   683
0685:  BTFSS  0E.4
0686:  GOTO   685
0687:  BCF    18.3
0688:  BCF    13.3
0689:  MOVLW  09
068A:  MOVWF  77
068B:  DECFSZ 77,F
068C:  GOTO   68B
068D:  BCF    18.4
068E:  BCF    13.4
....................       I2C_write(0b01110001); //LECTURA
068F:  MOVLW  71
0690:  MOVWF  47
0691:  CALL   026
....................       high_byte = I2C_read(0);
0692:  CLRF   77
0693:  CALL   1E1
0694:  MOVF   78,W
0695:  MOVWF  28
....................       I2C_stop();
0696:  BCF    13.3
0697:  NOP
0698:  BSF    13.4
0699:  BTFSS  0E.4
069A:  GOTO   699
069B:  MOVLW  09
069C:  MOVWF  77
069D:  DECFSZ 77,F
069E:  GOTO   69D
069F:  GOTO   6A0
06A0:  NOP
06A1:  BSF    13.3
06A2:  MOVLW  09
06A3:  MOVWF  77
06A4:  DECFSZ 77,F
06A5:  GOTO   6A4
....................          
....................       delay_us(50);
06A6:  MOVLW  85
06A7:  MOVWF  77
06A8:  DECFSZ 77,F
06A9:  GOTO   6A8
....................           
....................       I2C_start();
06AA:  BSF    13.3
06AB:  MOVLW  09
06AC:  MOVWF  77
06AD:  DECFSZ 77,F
06AE:  GOTO   6AD
06AF:  BSF    13.4
06B0:  MOVLW  08
06B1:  MOVWF  77
06B2:  DECFSZ 77,F
06B3:  GOTO   6B2
06B4:  BCF    18.3
06B5:  BCF    13.3
06B6:  MOVLW  09
06B7:  MOVWF  77
06B8:  DECFSZ 77,F
06B9:  GOTO   6B8
06BA:  BCF    18.4
06BB:  BCF    13.4
....................       I2C_write(0b01110000);  //ESCRITURA
06BC:  MOVLW  70
06BD:  MOVWF  47
06BE:  CALL   026
....................       I2C_write(2);
06BF:  MOVLW  02
06C0:  MOVWF  47
06C1:  CALL   026
....................       I2C_start();
06C2:  BSF    13.3
06C3:  MOVLW  09
06C4:  MOVWF  77
06C5:  DECFSZ 77,F
06C6:  GOTO   6C5
06C7:  BSF    13.4
06C8:  MOVLW  08
06C9:  MOVWF  77
06CA:  DECFSZ 77,F
06CB:  GOTO   6CA
06CC:  BTFSS  0E.4
06CD:  GOTO   6CC
06CE:  BCF    18.3
06CF:  BCF    13.3
06D0:  MOVLW  09
06D1:  MOVWF  77
06D2:  DECFSZ 77,F
06D3:  GOTO   6D2
06D4:  BCF    18.4
06D5:  BCF    13.4
....................       I2C_write(0b01110001); //LECTURA
06D6:  MOVLW  71
06D7:  MOVWF  47
06D8:  CALL   026
....................       low_byte = I2C_read(1);
06D9:  MOVLW  01
06DA:  MOVWF  77
06DB:  CALL   1E1
06DC:  MOVF   78,W
06DD:  MOVWF  29
....................       I2C_stop();
06DE:  BCF    13.3
06DF:  NOP
06E0:  BSF    13.4
06E1:  BTFSS  0E.4
06E2:  GOTO   6E1
06E3:  MOVLW  09
06E4:  MOVWF  77
06E5:  DECFSZ 77,F
06E6:  GOTO   6E5
06E7:  GOTO   6E8
06E8:  NOP
06E9:  BSF    13.3
06EA:  MOVLW  09
06EB:  MOVWF  77
06EC:  DECFSZ 77,F
06ED:  GOTO   6EC
....................       low_byte >>= 6;
06EE:  SWAPF  29,F
06EF:  RRF    29,F
06F0:  RRF    29,F
06F1:  MOVLW  03
06F2:  ANDWF  29,F
....................       
....................       temp = ds18b20_read();
06F3:  GOTO   277
06F4:  MOVF   7A,W
06F5:  MOVWF  27
06F6:  MOVF   79,W
06F7:  MOVWF  26
06F8:  MOVF   78,W
06F9:  MOVWF  25
06FA:  MOVF   77,W
06FB:  MOVWF  24
....................       printf(lcd_putc,"\fTEMP: %3.2f %cC\n:v %d.%d", temp,223,high_byte, low_byte);
06FC:  MOVLW  19
06FD:  MOVLB  10
06FE:  MOVWF  1A
06FF:  MOVLW  00
0700:  MOVWF  1B
0701:  BCF    03.0
0702:  MOVLW  07
0703:  MOVLB  00
0704:  MOVWF  2B
0705:  CALL   3AF
0706:  MOVLW  02
0707:  MOVWF  04
0708:  MOVF   27,W
0709:  MOVWF  2E
070A:  MOVF   26,W
070B:  MOVWF  2D
070C:  MOVF   25,W
070D:  MOVWF  2C
070E:  MOVF   24,W
070F:  MOVWF  2B
0710:  MOVLW  02
0711:  MOVWF  2F
0712:  GOTO   44C
0713:  MOVLW  20
0714:  MOVWF  38
0715:  CALL   13A
0716:  MOVLW  DF
0717:  MOVWF  38
0718:  CALL   13A
0719:  MOVLW  20
071A:  MOVLB  10
071B:  MOVWF  1A
071C:  MOVLW  00
071D:  MOVWF  1B
071E:  BSF    03.0
071F:  MOVLW  05
0720:  MOVLB  00
0721:  MOVWF  2B
0722:  CALL   3AF
0723:  MOVF   28,W
0724:  MOVWF  2B
0725:  MOVLW  18
0726:  MOVWF  2C
0727:  CALL   5B6
0728:  MOVLW  2E
0729:  MOVWF  38
072A:  CALL   13A
072B:  MOVF   29,W
072C:  MOVWF  2B
072D:  MOVLW  18
072E:  MOVWF  2C
072F:  CALL   5B6
....................       output_toggle(PIN_A0);
0730:  BCF    11.0
0731:  MOVLW  01
0732:  XORWF  16,F
....................       delay_ms(1000);
0733:  MOVLW  04
0734:  MOVWF  2B
0735:  MOVLW  FA
0736:  MOVWF  39
0737:  CALL   05C
0738:  DECFSZ 2B,F
0739:  GOTO   735
073A:  GOTO   664
....................    }
.................... }
073B:  SLEEP

Configuration Fuses:
   Word  1: 178C   NOEXTOSC RSTOSC_HFINTRC_32MHZ NOCLKOUT NOCKS NOFCMEN
   Word  2: 233D   MCLR PUT NOLPBOR NOBROWNOUT BORV24 NOZCDDIS NOPPS1WAY NOSTVREN NODEBUG
   Word  3: 069F   WDTSW NOWDT WDTWIN_100% WDTCLK_LFINTRC
   Word  4: 0FFF   NOWRT NOSCANE NOLVP
   Word  5: 3FFF   NOPROTECT NOCPD
